

Microchip Technology PIC LITE Macro Assembler V1.30 build 55553 
                                                                                               Tue Nov 25 14:49:02 2025

Microchip Technology Omniscient Code Generator (Lite mode) build 55553
     1                           	processor	12F1822
     2                           	opt	pw 120
     3                           	opt	lm
     4                           	psect	strings,global,class=STRING,delta=2
     5                           	psect	cinit,global,class=CODE,merge=1,delta=2
     6                           	psect	bssBANK0,global,class=BANK0,space=1,delta=1
     7                           	psect	clrtext,global,class=CODE,delta=2
     8                           	psect	cstackBANK1,global,class=BANK1,space=1,delta=1
     9                           	psect	cstackCOMMON,global,class=COMMON,space=1,delta=1
    10                           	psect	cstackBANK0,global,class=BANK0,space=1,delta=1
    11                           	psect	maintext,global,class=CODE,merge=1,split=1,delta=2
    12                           	psect	text1,local,class=CODE,merge=1,delta=2
    13                           	psect	text2,local,class=CODE,merge=1,delta=2
    14                           	psect	text3,local,class=CODE,merge=1,delta=2
    15                           	psect	text4,local,class=CODE,merge=1,delta=2
    16                           	psect	text5,local,class=CODE,merge=1,delta=2
    17                           	psect	intentry,global,class=CODE,delta=2
    18                           	psect	text7,local,class=CODE,merge=1,delta=2
    19                           	psect	text8,local,class=CODE,merge=1,delta=2
    20                           	psect	text9,local,class=CODE,merge=1,delta=2
    21                           	psect	text10,local,class=CODE,merge=1,delta=2
    22                           	psect	text11,local,class=CODE,merge=1,delta=2
    23                           	psect	text12,local,class=CODE,merge=1,delta=2
    24                           	dabs	1,0x7E,2
    25  0000                     	;# 
    26  0001                     	;# 
    27  0002                     	;# 
    28  0003                     	;# 
    29  0004                     	;# 
    30  0005                     	;# 
    31  0006                     	;# 
    32  0007                     	;# 
    33  0008                     	;# 
    34  0009                     	;# 
    35  000A                     	;# 
    36  000B                     	;# 
    37  000C                     	;# 
    38  0011                     	;# 
    39  0012                     	;# 
    40  0015                     	;# 
    41  0016                     	;# 
    42  0016                     	;# 
    43  0017                     	;# 
    44  0018                     	;# 
    45  0019                     	;# 
    46  001A                     	;# 
    47  001B                     	;# 
    48  001C                     	;# 
    49  001E                     	;# 
    50  001F                     	;# 
    51  008C                     	;# 
    52  0091                     	;# 
    53  0092                     	;# 
    54  0095                     	;# 
    55  0096                     	;# 
    56  0097                     	;# 
    57  0098                     	;# 
    58  0099                     	;# 
    59  009A                     	;# 
    60  009B                     	;# 
    61  009B                     	;# 
    62  009C                     	;# 
    63  009D                     	;# 
    64  009E                     	;# 
    65  010C                     	;# 
    66  0111                     	;# 
    67  0112                     	;# 
    68  0115                     	;# 
    69  0116                     	;# 
    70  0117                     	;# 
    71  0118                     	;# 
    72  0119                     	;# 
    73  011A                     	;# 
    74  011B                     	;# 
    75  011D                     	;# 
    76  011D                     	;# 
    77  018C                     	;# 
    78  0191                     	;# 
    79  0191                     	;# 
    80  0192                     	;# 
    81  0193                     	;# 
    82  0193                     	;# 
    83  0193                     	;# 
    84  0194                     	;# 
    85  0195                     	;# 
    86  0196                     	;# 
    87  0199                     	;# 
    88  019A                     	;# 
    89  019B                     	;# 
    90  019B                     	;# 
    91  019B                     	;# 
    92  019B                     	;# 
    93  019C                     	;# 
    94  019C                     	;# 
    95  019D                     	;# 
    96  019E                     	;# 
    97  019F                     	;# 
    98  020C                     	;# 
    99  0211                     	;# 
   100  0211                     	;# 
   101  0212                     	;# 
   102  0212                     	;# 
   103  0213                     	;# 
   104  0213                     	;# 
   105  0214                     	;# 
   106  0214                     	;# 
   107  0215                     	;# 
   108  0215                     	;# 
   109  0215                     	;# 
   110  0216                     	;# 
   111  0216                     	;# 
   112  0217                     	;# 
   113  0217                     	;# 
   114  0291                     	;# 
   115  0291                     	;# 
   116  0292                     	;# 
   117  0293                     	;# 
   118  0294                     	;# 
   119  0295                     	;# 
   120  0295                     	;# 
   121  0296                     	;# 
   122  0391                     	;# 
   123  0392                     	;# 
   124  0393                     	;# 
   125  039A                     	;# 
   126  039C                     	;# 
   127  039D                     	;# 
   128  039E                     	;# 
   129  039F                     	;# 
   130  0FE4                     	;# 
   131  0FE5                     	;# 
   132  0FE6                     	;# 
   133  0FE7                     	;# 
   134  0FE8                     	;# 
   135  0FE9                     	;# 
   136  0FEA                     	;# 
   137  0FEB                     	;# 
   138  0FED                     	;# 
   139  0FEE                     	;# 
   140  0FEF                     	;# 
   141  0000                     	;# 
   142  0001                     	;# 
   143  0002                     	;# 
   144  0003                     	;# 
   145  0004                     	;# 
   146  0005                     	;# 
   147  0006                     	;# 
   148  0007                     	;# 
   149  0008                     	;# 
   150  0009                     	;# 
   151  000A                     	;# 
   152  000B                     	;# 
   153  000C                     	;# 
   154  0011                     	;# 
   155  0012                     	;# 
   156  0015                     	;# 
   157  0016                     	;# 
   158  0016                     	;# 
   159  0017                     	;# 
   160  0018                     	;# 
   161  0019                     	;# 
   162  001A                     	;# 
   163  001B                     	;# 
   164  001C                     	;# 
   165  001E                     	;# 
   166  001F                     	;# 
   167  008C                     	;# 
   168  0091                     	;# 
   169  0092                     	;# 
   170  0095                     	;# 
   171  0096                     	;# 
   172  0097                     	;# 
   173  0098                     	;# 
   174  0099                     	;# 
   175  009A                     	;# 
   176  009B                     	;# 
   177  009B                     	;# 
   178  009C                     	;# 
   179  009D                     	;# 
   180  009E                     	;# 
   181  010C                     	;# 
   182  0111                     	;# 
   183  0112                     	;# 
   184  0115                     	;# 
   185  0116                     	;# 
   186  0117                     	;# 
   187  0118                     	;# 
   188  0119                     	;# 
   189  011A                     	;# 
   190  011B                     	;# 
   191  011D                     	;# 
   192  011D                     	;# 
   193  018C                     	;# 
   194  0191                     	;# 
   195  0191                     	;# 
   196  0192                     	;# 
   197  0193                     	;# 
   198  0193                     	;# 
   199  0193                     	;# 
   200  0194                     	;# 
   201  0195                     	;# 
   202  0196                     	;# 
   203  0199                     	;# 
   204  019A                     	;# 
   205  019B                     	;# 
   206  019B                     	;# 
   207  019B                     	;# 
   208  019B                     	;# 
   209  019C                     	;# 
   210  019C                     	;# 
   211  019D                     	;# 
   212  019E                     	;# 
   213  019F                     	;# 
   214  020C                     	;# 
   215  0211                     	;# 
   216  0211                     	;# 
   217  0212                     	;# 
   218  0212                     	;# 
   219  0213                     	;# 
   220  0213                     	;# 
   221  0214                     	;# 
   222  0214                     	;# 
   223  0215                     	;# 
   224  0215                     	;# 
   225  0215                     	;# 
   226  0216                     	;# 
   227  0216                     	;# 
   228  0217                     	;# 
   229  0217                     	;# 
   230  0291                     	;# 
   231  0291                     	;# 
   232  0292                     	;# 
   233  0293                     	;# 
   234  0294                     	;# 
   235  0295                     	;# 
   236  0295                     	;# 
   237  0296                     	;# 
   238  0391                     	;# 
   239  0392                     	;# 
   240  0393                     	;# 
   241  039A                     	;# 
   242  039C                     	;# 
   243  039D                     	;# 
   244  039E                     	;# 
   245  039F                     	;# 
   246  0FE4                     	;# 
   247  0FE5                     	;# 
   248  0FE6                     	;# 
   249  0FE7                     	;# 
   250  0FE8                     	;# 
   251  0FE9                     	;# 
   252  0FEA                     	;# 
   253  0FEB                     	;# 
   254  0FED                     	;# 
   255  0FEE                     	;# 
   256  0FEF                     	;# 
   257  0000                     	;# 
   258  0001                     	;# 
   259  0002                     	;# 
   260  0003                     	;# 
   261  0004                     	;# 
   262  0005                     	;# 
   263  0006                     	;# 
   264  0007                     	;# 
   265  0008                     	;# 
   266  0009                     	;# 
   267  000A                     	;# 
   268  000B                     	;# 
   269  000C                     	;# 
   270  0011                     	;# 
   271  0012                     	;# 
   272  0015                     	;# 
   273  0016                     	;# 
   274  0016                     	;# 
   275  0017                     	;# 
   276  0018                     	;# 
   277  0019                     	;# 
   278  001A                     	;# 
   279  001B                     	;# 
   280  001C                     	;# 
   281  001E                     	;# 
   282  001F                     	;# 
   283  008C                     	;# 
   284  0091                     	;# 
   285  0092                     	;# 
   286  0095                     	;# 
   287  0096                     	;# 
   288  0097                     	;# 
   289  0098                     	;# 
   290  0099                     	;# 
   291  009A                     	;# 
   292  009B                     	;# 
   293  009B                     	;# 
   294  009C                     	;# 
   295  009D                     	;# 
   296  009E                     	;# 
   297  010C                     	;# 
   298  0111                     	;# 
   299  0112                     	;# 
   300  0115                     	;# 
   301  0116                     	;# 
   302  0117                     	;# 
   303  0118                     	;# 
   304  0119                     	;# 
   305  011A                     	;# 
   306  011B                     	;# 
   307  011D                     	;# 
   308  011D                     	;# 
   309  018C                     	;# 
   310  0191                     	;# 
   311  0191                     	;# 
   312  0192                     	;# 
   313  0193                     	;# 
   314  0193                     	;# 
   315  0193                     	;# 
   316  0194                     	;# 
   317  0195                     	;# 
   318  0196                     	;# 
   319  0199                     	;# 
   320  019A                     	;# 
   321  019B                     	;# 
   322  019B                     	;# 
   323  019B                     	;# 
   324  019B                     	;# 
   325  019C                     	;# 
   326  019C                     	;# 
   327  019D                     	;# 
   328  019E                     	;# 
   329  019F                     	;# 
   330  020C                     	;# 
   331  0211                     	;# 
   332  0211                     	;# 
   333  0212                     	;# 
   334  0212                     	;# 
   335  0213                     	;# 
   336  0213                     	;# 
   337  0214                     	;# 
   338  0214                     	;# 
   339  0215                     	;# 
   340  0215                     	;# 
   341  0215                     	;# 
   342  0216                     	;# 
   343  0216                     	;# 
   344  0217                     	;# 
   345  0217                     	;# 
   346  0291                     	;# 
   347  0291                     	;# 
   348  0292                     	;# 
   349  0293                     	;# 
   350  0294                     	;# 
   351  0295                     	;# 
   352  0295                     	;# 
   353  0296                     	;# 
   354  0391                     	;# 
   355  0392                     	;# 
   356  0393                     	;# 
   357  039A                     	;# 
   358  039C                     	;# 
   359  039D                     	;# 
   360  039E                     	;# 
   361  039F                     	;# 
   362  0FE4                     	;# 
   363  0FE5                     	;# 
   364  0FE6                     	;# 
   365  0FE7                     	;# 
   366  0FE8                     	;# 
   367  0FE9                     	;# 
   368  0FEA                     	;# 
   369  0FEB                     	;# 
   370  0FED                     	;# 
   371  0FEE                     	;# 
   372  0FEF                     	;# 
   373                           
   374                           	psect	strings
   375  0304                     __pstrings:	
   376  0304                     __stringtab:	
   377  0304  3400               	retlw	0
   378  0305                     __end_of__stringtab:	
   379  0305                     _Lin_Msg:	
   380  0305  3401               	retlw	1
   381  0306  3408               	retlw	8
   382  0307  3402               	retlw	2
   383  0308  3441               	retlw	_Msg_01_Buffer& (0+255)
   384  0309  3402               	retlw	2
   385  030A  3408               	retlw	8
   386  030B  3401               	retlw	1
   387  030C  3449               	retlw	_Msg_02_Buffer& (0+255)
   388  030D                     __end_of_Lin_Msg:	
   389  0011                     _PIR1bits	set	17
   390  001C                     _T2CON	set	28
   391  001A                     _TMR2	set	26
   392  005F                     _GIE	set	95
   393  005E                     _PEIE	set	94
   394  008D                     _RCIF	set	141
   395  0089                     _TMR2IF	set	137
   396  009D                     _ADCON0	set	157
   397  009E                     _ADCON1	set	158
   398  009C                     _ADRESH	set	156
   399  009B                     _ADRESL	set	155
   400  0095                     _OPTION_REG	set	149
   401  0099                     _OSCCON	set	153
   402  0489                     _TMR2IE	set	1161
   403  0460                     _TRISA0	set	1120
   404  0461                     _TRISA1	set	1121
   405  0462                     _TRISA2	set	1122
   406  0463                     _TRISA3	set	1123
   407  0464                     _TRISA4	set	1124
   408  0465                     _TRISA5	set	1125
   409  011D                     _APFCON	set	285
   410  0111                     _CM1CON0	set	273
   411  018C                     _ANSELA	set	396
   412  019F                     _BAUDCONbits	set	415
   413  0199                     _RCREG	set	409
   414  019D                     _RCSTAbits	set	413
   415  019C                     _SPBRGH	set	412
   416  019B                     _SPBRGL	set	411
   417  019A                     _TXREG	set	410
   418  019E                     _TXSTAbits	set	414
   419  0CF1                     _TRMT	set	3313
   420                           
   421                           	psect	cinit
   422  0028                     start_initialization:	
   423                           ; #config settings
   424                           
   425  0028                     __initialization:	
   426                           
   427                           ; Clear objects allocated to BANK0
   428  0028  3020               	movlw	low __pbssBANK0
   429  0029  0084               	movwf	4
   430  002A  3000               	movlw	high __pbssBANK0
   431  002B  0085               	movwf	5
   432  002C  3039               	movlw	57
   433  002D  2314               	fcall	clear_ram0
   434  002E                     end_of_initialization:	
   435                           ;End of C runtime variable initialization code
   436                           
   437  002E                     __end_of__initialization:	
   438  002E  0020               	movlb	0
   439  002F  2AA8               	ljmp	_main	;jump to C main() function
   440                           
   441                           	psect	bssBANK0
   442  0020                     __pbssBANK0:	
   443  0020                     _adcVal:	
   444  0020                     	ds	2
   445  0022                     LIN_Task_USART_Interrupt@byte:	
   446  0022                     	ds	1
   447  0023                     LIN_Task_USART_Interrupt@data_cnt:	
   448  0023                     	ds	1
   449  0024                     LIN_Task_USART_Interrupt@dummy:	
   450  0024                     	ds	1
   451  0025                     LIN_Task_USART_Interrupt@id:	
   452  0025                     	ds	1
   453  0026                     LIN_Task_USART_Interrupt@id_index:	
   454  0026                     	ds	1
   455  0027                     LIN_Task_USART_Interrupt@id_receive:	
   456  0027                     	ds	1
   457  0028                     LIN_Task_USART_Interrupt@id_type:	
   458  0028                     	ds	1
   459  0029                     LIN_Task_USART_Interrupt@temp_cksum:	
   460  0029                     	ds	1
   461  002A                     _Lin_State:	
   462  002A                     	ds	1
   463  002B                     _timer_100ms_count:	
   464  002B                     	ds	1
   465  002C                     _timer_10ms_count:	
   466  002C                     	ds	1
   467  002D                     _Lin_Data:	
   468  002D                     	ds	20
   469  0041                     _Msg_01_Buffer:	
   470  0041                     	ds	8
   471  0049                     _Msg_02_Buffer:	
   472  0049                     	ds	8
   473  0051                     _led_data:	
   474  0051                     	ds	8
   475                           
   476                           	psect	clrtext
   477  0314                     clear_ram0:	
   478                           ;	Called with FSR0 containing the base address, and
   479                           ;	WREG with the size to clear
   480                           
   481  0314  0064               	clrwdt	;clear the watchdog before getting into this loop
   482  0315                     clrloop0:	
   483  0315  0180               	clrf	0	;clear RAM location pointed to by FSR
   484  0316  3101               	addfsr 0,1
   485  0317  0B89               	decfsz	9,f	;Have we reached the end of clearing yet?
   486  0318  2B15               	goto	clrloop0	;have we reached the end yet?
   487  0319  3400               	retlw	0	;all done for this memory range, return
   488                           
   489                           	psect	cstackBANK1
   490  00A0                     __pcstackBANK1:	
   491  00A0                     ??_InitializeSystem:	
   492  00A0                     ??_Init_UART:	
   493                           ; 0 bytes @ 0x0
   494                           
   495  00A0                     ??_Init_Btn:	
   496                           ; 0 bytes @ 0x0
   497                           
   498  00A0                     ?_Read_Adc:	
   499                           ; 0 bytes @ 0x0
   500                           
   501                           
   502                           ; 2 bytes @ 0x0
   503  00A0                     	ds	2
   504  00A2                     ??_App_Btn_Process:	
   505  00A2                     ??_main:	
   506                           ; 0 bytes @ 0x2
   507                           
   508  00A2                     ??_Read_Adc:	
   509                           ; 0 bytes @ 0x2
   510                           
   511  00A2                     main@data:	
   512                           ; 0 bytes @ 0x2
   513                           
   514                           
   515                           ; 2 bytes @ 0x2
   516  00A2                     	ds	2
   517                           
   518                           	psect	cstackCOMMON
   519  0070                     __pcstackCOMMON:	
   520  0070                     ?_InitializeSystem:	
   521  0070                     ?_Init_UART:	
   522                           ; 0 bytes @ 0x0
   523                           
   524  0070                     ?_Init_Btn:	
   525                           ; 0 bytes @ 0x0
   526                           
   527  0070                     ?_App_Btn_Process:	
   528                           ; 0 bytes @ 0x0
   529                           
   530  0070                     ?_LIN_Task_USART_Interrupt:	
   531                           ; 0 bytes @ 0x0
   532                           
   533  0070                     ?_LIN_Send_Data:	
   534                           ; 0 bytes @ 0x0
   535                           
   536  0070                     ??_LIN_Send_Data:	
   537                           ; 0 bytes @ 0x0
   538                           
   539  0070                     ?_App_Notify_Frame_Received_USART:	
   540                           ; 0 bytes @ 0x0
   541                           
   542  0070                     ?_main:	
   543                           ; 0 bytes @ 0x0
   544                           
   545  0070                     ?_isr:	
   546                           ; 0 bytes @ 0x0
   547                           
   548  0070                     ?___bmul:	
   549                           ; 0 bytes @ 0x0
   550                           
   551  0070                     LIN_Send_Data@data:	
   552                           ; 1 bytes @ 0x0
   553                           
   554  0070                     ___bmul@multiplicand:	
   555                           ; 1 bytes @ 0x0
   556                           
   557                           
   558                           ; 1 bytes @ 0x0
   559  0070                     	ds	1
   560  0071                     ??___bmul:	
   561                           
   562                           ; 0 bytes @ 0x1
   563  0071                     	ds	1
   564  0072                     ___bmul@product:	
   565                           
   566                           ; 1 bytes @ 0x2
   567  0072                     	ds	1
   568  0073                     ___bmul@multiplier:	
   569                           
   570                           ; 1 bytes @ 0x3
   571  0073                     	ds	1
   572  0074                     ?_memcpy:	
   573  0074                     ?_LIN_Calc_Checksum:	
   574                           ; 1 bytes @ 0x4
   575                           
   576  0074                     LIN_Calc_Checksum@length:	
   577                           ; 1 bytes @ 0x4
   578                           
   579  0074                     memcpy@s1:	
   580                           ; 1 bytes @ 0x4
   581                           
   582                           
   583                           ; 1 bytes @ 0x4
   584  0074                     	ds	1
   585  0075                     ??_LIN_Calc_Checksum:	
   586  0075                     memcpy@n:	
   587                           ; 0 bytes @ 0x5
   588                           
   589                           
   590                           ; 2 bytes @ 0x5
   591  0075                     	ds	2
   592  0077                     ??_memcpy:	
   593                           
   594                           ; 0 bytes @ 0x7
   595  0077                     	ds	1
   596  0078                     memcpy@d:	
   597                           
   598                           ; 1 bytes @ 0x8
   599  0078                     	ds	1
   600  0079                     LIN_Calc_Checksum@data:	
   601  0079                     memcpy@s:	
   602                           ; 1 bytes @ 0x9
   603                           
   604                           
   605                           ; 1 bytes @ 0x9
   606  0079                     	ds	1
   607  007A                     memcpy@d1:	
   608  007A                     LIN_Calc_Checksum@sum:	
   609                           ; 1 bytes @ 0xA
   610                           
   611                           
   612                           ; 2 bytes @ 0xA
   613  007A                     	ds	1
   614  007B                     App_Notify_Frame_Received_USART@id_index:	
   615                           
   616                           ; 1 bytes @ 0xB
   617  007B                     	ds	1
   618  007C                     LIN_Task_USART_Interrupt@data:	
   619                           
   620                           ; 1 bytes @ 0xC
   621  007C                     	ds	1
   622  007D                     isr@data:	
   623                           
   624                           ; 1 bytes @ 0xD
   625  007D                     	ds	1
   626                           
   627                           	psect	cstackBANK0
   628  0059                     __pcstackBANK0:	
   629  0059                     ??_App_Notify_Frame_Received_USART:	
   630                           
   631                           ; 0 bytes @ 0x0
   632  0059                     	ds	5
   633  005E                     ??_LIN_Task_USART_Interrupt:	
   634                           
   635                           ; 0 bytes @ 0x5
   636  005E                     	ds	5
   637  0063                     ??_isr:	
   638                           
   639                           ; 0 bytes @ 0xA
   640  0063                     	ds	2
   641                           
   642                           	psect	maintext
   643  02A8                     __pmaintext:	
   644 ;;
   645 ;;Main: autosize = 0, tempsize = 0, incstack = 0, save=0
   646 ;;
   647 ;; *************** function _main *****************
   648 ;; Defined at:
   649 ;;		line 42 in file "D:\Nandu\Git_Workspace\EmbeddedProjects\AutomotiveProjects\LIN\Front_Park_Switch\main.c"
   650 ;; Parameters:    Size  Location     Type
   651 ;;		None
   652 ;; Auto vars:     Size  Location     Type
   653 ;;  data            2    2[BANK1 ] volatile unsigned int 
   654 ;; Return value:  Size  Location     Type
   655 ;;		None               void
   656 ;; Registers used:
   657 ;;		wreg, status,2, status,0, pclath, cstack
   658 ;; Tracked objects:
   659 ;;		On entry : 17F/0
   660 ;;		On exit  : 0/0
   661 ;;		Unchanged: 0/0
   662 ;; Data sizes:     COMMON   BANK0   BANK1
   663 ;;      Params:         0       0       0
   664 ;;      Locals:         0       0       2
   665 ;;      Temps:          0       0       0
   666 ;;      Totals:         0       0       2
   667 ;;Total ram usage:        2 bytes
   668 ;; Hardware stack levels required when called:    6
   669 ;; This function calls:
   670 ;;		_App_Btn_Process
   671 ;;		_Init_Btn
   672 ;;		_Init_UART
   673 ;;		_InitializeSystem
   674 ;; This function is called by:
   675 ;;		Startup code after reset
   676 ;; This function uses a non-reentrant model
   677 ;;
   678                           
   679                           
   680                           ;psect for function _main
   681  02A8                     _main:	
   682                           
   683                           ;main.c: 46: volatile unsigned int data = 9000u;
   684                           
   685                           ;incstack = 0
   686                           ; Regs used in _main: [wreg+status,2+status,0+pclath+cstack]
   687  02A8  3028               	movlw	40
   688  02A9  0021               	movlb	1	; select bank1
   689  02AA  00A2               	movwf	main@data^(0+128)	;volatile
   690  02AB  3023               	movlw	35
   691  02AC  00A3               	movwf	(main@data^(0+128)+1)	;volatile
   692  02AD                     l1542:	
   693                           ;main.c: 47: while(data--);
   694                           
   695  02AD  3001               	movlw	1
   696  02AE  02A2               	subwf	main@data^(0+128),f	;volatile
   697  02AF  3000               	movlw	0
   698  02B0  3BA3               	subwfb	(main@data+1)^(0+128),f	;volatile
   699  02B1  30FF               	movlw	255
   700  02B2  0623               	xorwf	(main@data+1)^(0+128),w	;volatile
   701  02B3  1D03               	skipz
   702  02B4  2AB7               	goto	u735
   703  02B5  30FF               	movlw	255
   704  02B6  0622               	xorwf	main@data^(0+128),w	;volatile
   705  02B7                     u735:	
   706  02B7  1D03               	skipz
   707  02B8  2AAD               	goto	l1542
   708                           
   709                           ;main.c: 49: InitializeSystem();
   710  02B9  2285               	fcall	_InitializeSystem
   711                           
   712                           ;main.c: 50: Init_UART();
   713  02BA  22CA               	fcall	_Init_UART
   714                           
   715                           ;main.c: 51: Init_Btn();
   716  02BB  231A               	fcall	_Init_Btn
   717  02BC                     l74:	
   718                           ;main.c: 53: while(1)
   719                           
   720                           
   721                           ;main.c: 54: {
   722                           ;main.c: 55: if(timer_10ms_count == 9u)
   723  02BC  0020               	movlb	0	; select bank0
   724  02BD  082C               	movf	_timer_10ms_count,w	;volatile
   725  02BE  3A09               	xorlw	9
   726  02BF  1D03               	skipz
   727  02C0  2AC4               	goto	l1552
   728                           
   729                           ;main.c: 56: {
   730                           ;main.c: 57: App_Btn_Process();
   731  02C1  22ED               	fcall	_App_Btn_Process
   732                           
   733                           ;main.c: 58: timer_10ms_count = 0u;
   734  02C2  0020               	movlb	0	; select bank0
   735  02C3  01AC               	clrf	_timer_10ms_count	;volatile
   736  02C4                     l1552:	
   737                           
   738                           ;main.c: 59: }
   739                           ;main.c: 60: if(timer_100ms_count == 99u)
   740  02C4  082B               	movf	_timer_100ms_count,w	;volatile
   741  02C5  3A63               	xorlw	99
   742  02C6  1D03               	skipz
   743  02C7  2ABC               	goto	l74
   744                           
   745                           ;main.c: 61: {
   746                           ;main.c: 62: timer_100ms_count = 0u;
   747  02C8  01AB               	clrf	_timer_100ms_count	;volatile
   748  02C9  2ABC               	goto	l74
   749  02CA                     __end_of_main:	
   750                           
   751                           	psect	text1
   752  0285                     __ptext1:	
   753 ;; *************** function _InitializeSystem *****************
   754 ;; Defined at:
   755 ;;		line 73 in file "D:\Nandu\Git_Workspace\EmbeddedProjects\AutomotiveProjects\LIN\Front_Park_Switch\main.c"
   756 ;; Parameters:    Size  Location     Type
   757 ;;		None
   758 ;; Auto vars:     Size  Location     Type
   759 ;;		None
   760 ;; Return value:  Size  Location     Type
   761 ;;		None               void
   762 ;; Registers used:
   763 ;;		wreg, status,2
   764 ;; Tracked objects:
   765 ;;		On entry : 0/0
   766 ;;		On exit  : 0/0
   767 ;;		Unchanged: 0/0
   768 ;; Data sizes:     COMMON   BANK0   BANK1
   769 ;;      Params:         0       0       0
   770 ;;      Locals:         0       0       0
   771 ;;      Temps:          0       0       0
   772 ;;      Totals:         0       0       0
   773 ;;Total ram usage:        0 bytes
   774 ;; Hardware stack levels used:    1
   775 ;; Hardware stack levels required when called:    4
   776 ;; This function calls:
   777 ;;		Nothing
   778 ;; This function is called by:
   779 ;;		_main
   780 ;; This function uses a non-reentrant model
   781 ;;
   782                           
   783                           
   784                           ;psect for function _InitializeSystem
   785  0285                     _InitializeSystem:	
   786                           
   787                           ;main.c: 76: APFCON = 0x8Cu;
   788                           
   789                           ;incstack = 0
   790                           ; Regs used in _InitializeSystem: [wreg+status,2]
   791  0285  308C               	movlw	140
   792  0286  0022               	movlb	2	; select bank2
   793  0287  009D               	movwf	29	;volatile
   794                           
   795                           ;main.c: 77: OSCCON = 0x78u;
   796  0288  3078               	movlw	120
   797  0289  0021               	movlb	1	; select bank1
   798  028A  0099               	movwf	25	;volatile
   799                           
   800                           ;main.c: 78: OPTION_REG = 0x03u;
   801  028B  3003               	movlw	3
   802  028C  0095               	movwf	21	;volatile
   803                           
   804                           ;main.c: 79: CM1CON0 = 7u;
   805  028D  3007               	movlw	7
   806  028E  0022               	movlb	2	; select bank2
   807  028F  0091               	movwf	17	;volatile
   808                           
   809                           ;main.c: 80: ANSELA = 0x04u;
   810  0290  3004               	movlw	4
   811  0291  0023               	movlb	3	; select bank3
   812  0292  008C               	movwf	12	;volatile
   813                           
   814                           ;main.c: 81: ADCON0 = 0x01u;
   815  0293  3001               	movlw	1
   816  0294  0021               	movlb	1	; select bank1
   817  0295  009D               	movwf	29	;volatile
   818                           
   819                           ;main.c: 82: ADCON1 = 0xD0u;
   820  0296  30D0               	movlw	208
   821  0297  009E               	movwf	30	;volatile
   822                           
   823                           ;main.c: 87: TRISA5 = 1u;
   824  0298  168C               	bsf	12,5	;volatile
   825                           
   826                           ;main.c: 88: TRISA4 = 0u;
   827  0299  120C               	bcf	12,4	;volatile
   828                           
   829                           ;main.c: 89: TRISA3 = 1u;
   830  029A  158C               	bsf	12,3	;volatile
   831                           
   832                           ;main.c: 90: TRISA2 = 1u;
   833  029B  150C               	bsf	12,2	;volatile
   834                           
   835                           ;main.c: 91: TRISA1 = 0u;
   836  029C  108C               	bcf	12,1	;volatile
   837                           
   838                           ;main.c: 92: TRISA0 = 0u;
   839  029D  100C               	bcf	12,0	;volatile
   840                           
   841                           ;main.c: 98: T2CON = 0x7Cu;
   842  029E  307C               	movlw	124
   843  029F  0020               	movlb	0	; select bank0
   844  02A0  009C               	movwf	28	;volatile
   845                           
   846                           ;main.c: 99: TMR2 = 0u;
   847  02A1  019A               	clrf	26	;volatile
   848                           
   849                           ;main.c: 100: TMR2IF = 0u;
   850  02A2  1091               	bcf	17,1	;volatile
   851                           
   852                           ;main.c: 101: TMR2IE = 1u;
   853  02A3  0021               	movlb	1	; select bank1
   854  02A4  1491               	bsf	17,1	;volatile
   855                           
   856                           ;main.c: 105: PEIE = 1u;
   857  02A5  170B               	bsf	11,6	;volatile
   858                           
   859                           ;main.c: 106: GIE = 1u;
   860  02A6  178B               	bsf	11,7	;volatile
   861  02A7  0008               	return
   862  02A8                     __end_of_InitializeSystem:	
   863                           
   864                           	psect	text2
   865  02CA                     __ptext2:	
   866 ;; *************** function _Init_UART *****************
   867 ;; Defined at:
   868 ;;		line 171 in file "D:\Nandu\Git_Workspace\EmbeddedProjects\AutomotiveProjects\LIN\Front_Park_Switch\main.c"
   869 ;; Parameters:    Size  Location     Type
   870 ;;		None
   871 ;; Auto vars:     Size  Location     Type
   872 ;;		None
   873 ;; Return value:  Size  Location     Type
   874 ;;		None               void
   875 ;; Registers used:
   876 ;;		wreg, status,2
   877 ;; Tracked objects:
   878 ;;		On entry : 0/0
   879 ;;		On exit  : 0/0
   880 ;;		Unchanged: 0/0
   881 ;; Data sizes:     COMMON   BANK0   BANK1
   882 ;;      Params:         0       0       0
   883 ;;      Locals:         0       0       0
   884 ;;      Temps:          0       0       0
   885 ;;      Totals:         0       0       0
   886 ;;Total ram usage:        0 bytes
   887 ;; Hardware stack levels used:    1
   888 ;; Hardware stack levels required when called:    4
   889 ;; This function calls:
   890 ;;		Nothing
   891 ;; This function is called by:
   892 ;;		_main
   893 ;; This function uses a non-reentrant model
   894 ;;
   895                           
   896                           
   897                           ;psect for function _Init_UART
   898  02CA                     _Init_UART:	
   899                           
   900                           ;main.c: 173: SPBRGH = 0u;
   901                           
   902                           ;incstack = 0
   903                           ; Regs used in _Init_UART: [wreg+status,2]
   904  02CA  0023               	movlb	3	; select bank3
   905  02CB  019C               	clrf	28	;volatile
   906                           
   907                           ;main.c: 174: SPBRGL = 25u;
   908  02CC  3019               	movlw	25
   909  02CD  009B               	movwf	27	;volatile
   910                           
   911                           ;main.c: 176: TXSTAbits.TX9= 0;
   912  02CE  131E               	bcf	30,6	;volatile
   913                           
   914                           ;main.c: 177: TXSTAbits.TXEN = 1;
   915  02CF  169E               	bsf	30,5	;volatile
   916                           
   917                           ;main.c: 178: TXSTAbits.SYNC = 0;
   918  02D0  121E               	bcf	30,4	;volatile
   919                           
   920                           ;main.c: 179: TXSTAbits.SENDB = 0;
   921  02D1  119E               	bcf	30,3	;volatile
   922                           
   923                           ;main.c: 180: TXSTAbits.BRGH = 0;
   924  02D2  111E               	bcf	30,2	;volatile
   925                           
   926                           ;main.c: 182: BAUDCONbits.SCKP = 0;
   927  02D3  121F               	bcf	31,4	;volatile
   928                           
   929                           ;main.c: 183: BAUDCONbits.BRG16 = 0;
   930  02D4  119F               	bcf	31,3	;volatile
   931                           
   932                           ;main.c: 184: BAUDCONbits.ABDEN = 0;
   933  02D5  101F               	bcf	31,0	;volatile
   934                           
   935                           ;main.c: 186: RCSTAbits.RX9 = 0;
   936  02D6  131D               	bcf	29,6	;volatile
   937                           
   938                           ;main.c: 187: RCSTAbits.CREN = 1;
   939  02D7  161D               	bsf	29,4	;volatile
   940                           
   941                           ;main.c: 188: RCSTAbits.FERR = 0;
   942  02D8  111D               	bcf	29,2	;volatile
   943                           
   944                           ;main.c: 189: RCSTAbits.OERR = 0;
   945  02D9  109D               	bcf	29,1	;volatile
   946                           
   947                           ;main.c: 190: RCSTAbits.SPEN = 1;
   948  02DA  179D               	bsf	29,7	;volatile
   949  02DB  0008               	return
   950  02DC                     __end_of_Init_UART:	
   951                           
   952                           	psect	text3
   953  031A                     __ptext3:	
   954 ;; *************** function _Init_Btn *****************
   955 ;; Defined at:
   956 ;;		line 33 in file "D:\Nandu\Git_Workspace\EmbeddedProjects\AutomotiveProjects\LIN\Front_Park_Switch\btn.c"
   957 ;; Parameters:    Size  Location     Type
   958 ;;		None
   959 ;; Auto vars:     Size  Location     Type
   960 ;;		None
   961 ;; Return value:  Size  Location     Type
   962 ;;		None               void
   963 ;; Registers used:
   964 ;;		None
   965 ;; Tracked objects:
   966 ;;		On entry : 0/0
   967 ;;		On exit  : 0/0
   968 ;;		Unchanged: 0/0
   969 ;; Data sizes:     COMMON   BANK0   BANK1
   970 ;;      Params:         0       0       0
   971 ;;      Locals:         0       0       0
   972 ;;      Temps:          0       0       0
   973 ;;      Totals:         0       0       0
   974 ;;Total ram usage:        0 bytes
   975 ;; Hardware stack levels used:    1
   976 ;; Hardware stack levels required when called:    4
   977 ;; This function calls:
   978 ;;		Nothing
   979 ;; This function is called by:
   980 ;;		_main
   981 ;; This function uses a non-reentrant model
   982 ;;
   983                           
   984                           
   985                           ;psect for function _Init_Btn
   986  031A                     _Init_Btn:	
   987                           
   988                           ;incstack = 0
   989                           ; Regs used in _Init_Btn: []
   990  031A  0008               	return
   991  031B                     __end_of_Init_Btn:	
   992                           
   993                           	psect	text4
   994  02ED                     __ptext4:	
   995 ;; *************** function _App_Btn_Process *****************
   996 ;; Defined at:
   997 ;;		line 62 in file "D:\Nandu\Git_Workspace\EmbeddedProjects\AutomotiveProjects\LIN\Front_Park_Switch\btn.c"
   998 ;; Parameters:    Size  Location     Type
   999 ;;		None
  1000 ;; Auto vars:     Size  Location     Type
  1001 ;;		None
  1002 ;; Return value:  Size  Location     Type
  1003 ;;		None               void
  1004 ;; Registers used:
  1005 ;;		wreg, status,2, status,0, pclath, cstack
  1006 ;; Tracked objects:
  1007 ;;		On entry : 0/0
  1008 ;;		On exit  : 0/0
  1009 ;;		Unchanged: 0/0
  1010 ;; Data sizes:     COMMON   BANK0   BANK1
  1011 ;;      Params:         0       0       0
  1012 ;;      Locals:         0       0       0
  1013 ;;      Temps:          0       0       0
  1014 ;;      Totals:         0       0       0
  1015 ;;Total ram usage:        0 bytes
  1016 ;; Hardware stack levels used:    1
  1017 ;; Hardware stack levels required when called:    5
  1018 ;; This function calls:
  1019 ;;		_Read_Adc
  1020 ;; This function is called by:
  1021 ;;		_main
  1022 ;; This function uses a non-reentrant model
  1023 ;;
  1024                           
  1025                           
  1026                           ;psect for function _App_Btn_Process
  1027  02ED                     _App_Btn_Process:	
  1028                           
  1029                           ;btn.c: 64: adcVal = Read_Adc();
  1030                           
  1031                           ;incstack = 0
  1032                           ; Regs used in _App_Btn_Process: [wreg+status,2+status,0+pclath+cstack]
  1033  02ED  22F9               	fcall	_Read_Adc
  1034  02EE  0021               	movlb	1	; select bank1
  1035  02EF  0821               	movf	(?_Read_Adc+1)^(0+128),w
  1036  02F0  0020               	movlb	0	; select bank0
  1037  02F1  01A1               	clrf	_adcVal+1	;volatile
  1038  02F2  07A1               	addwf	_adcVal+1,f	;volatile
  1039  02F3  0021               	movlb	1	; select bank1
  1040  02F4  0820               	movf	?_Read_Adc^(0+128),w
  1041  02F5  0020               	movlb	0	; select bank0
  1042  02F6  01A0               	clrf	_adcVal	;volatile
  1043  02F7  07A0               	addwf	_adcVal,f	;volatile
  1044  02F8  0008               	return
  1045  02F9                     __end_of_App_Btn_Process:	
  1046                           
  1047                           	psect	text5
  1048  02F9                     __ptext5:	
  1049 ;; *************** function _Read_Adc *****************
  1050 ;; Defined at:
  1051 ;;		line 47 in file "D:\Nandu\Git_Workspace\EmbeddedProjects\AutomotiveProjects\LIN\Front_Park_Switch\btn.c"
  1052 ;; Parameters:    Size  Location     Type
  1053 ;;		None
  1054 ;; Auto vars:     Size  Location     Type
  1055 ;;		None
  1056 ;; Return value:  Size  Location     Type
  1057 ;;                  2    0[BANK1 ] unsigned int 
  1058 ;; Registers used:
  1059 ;;		wreg, status,2, status,0
  1060 ;; Tracked objects:
  1061 ;;		On entry : 0/0
  1062 ;;		On exit  : 0/0
  1063 ;;		Unchanged: 0/0
  1064 ;; Data sizes:     COMMON   BANK0   BANK1
  1065 ;;      Params:         0       0       2
  1066 ;;      Locals:         0       0       0
  1067 ;;      Temps:          0       0       0
  1068 ;;      Totals:         0       0       2
  1069 ;;Total ram usage:        2 bytes
  1070 ;; Hardware stack levels used:    1
  1071 ;; Hardware stack levels required when called:    4
  1072 ;; This function calls:
  1073 ;;		Nothing
  1074 ;; This function is called by:
  1075 ;;		_App_Btn_Process
  1076 ;; This function uses a non-reentrant model
  1077 ;;
  1078                           
  1079                           
  1080                           ;psect for function _Read_Adc
  1081  02F9                     _Read_Adc:	
  1082                           
  1083                           ;btn.c: 49: ADCON0 |= 0x02u;
  1084                           
  1085                           ;incstack = 0
  1086                           ; Regs used in _Read_Adc: [wreg+status,2+status,0]
  1087  02F9  0021               	movlb	1	; select bank1
  1088  02FA  149D               	bsf	29,1	;volatile
  1089  02FB                     l104:	
  1090                           ;btn.c: 50: while (ADCON0 & 0x02u);
  1091                           
  1092  02FB  189D               	btfsc	29,1	;volatile
  1093  02FC  2AFB               	goto	l104
  1094                           
  1095                           ;btn.c: 51: return ((ADRESH << 8) | ADRESL);
  1096  02FD  081C               	movf	28,w	;volatile
  1097  02FE  01A1               	clrf	(?_Read_Adc+1)^(0+128)
  1098  02FF  07A1               	addwf	(?_Read_Adc+1)^(0+128),f
  1099  0300  081B               	movf	27,w	;volatile
  1100  0301  01A0               	clrf	?_Read_Adc^(0+128)
  1101  0302  07A0               	addwf	?_Read_Adc^(0+128),f
  1102  0303  0008               	return
  1103  0304                     __end_of_Read_Adc:	
  1104                           
  1105                           	psect	intentry
  1106  0004                     __pintentry:	
  1107 ;; *************** function _isr *****************
  1108 ;; Defined at:
  1109 ;;		line 143 in file "D:\Nandu\Git_Workspace\EmbeddedProjects\AutomotiveProjects\LIN\Front_Park_Switch\main.c"
  1110 ;; Parameters:    Size  Location     Type
  1111 ;;		None
  1112 ;; Auto vars:     Size  Location     Type
  1113 ;;  data            1   13[COMMON] unsigned char 
  1114 ;; Return value:  Size  Location     Type
  1115 ;;		None               void
  1116 ;; Registers used:
  1117 ;;		wreg, fsr0l, fsr0h, fsr1l, fsr1h, status,2, status,0, pclath, cstack
  1118 ;; Tracked objects:
  1119 ;;		On entry : 0/0
  1120 ;;		On exit  : 0/0
  1121 ;;		Unchanged: 0/0
  1122 ;; Data sizes:     COMMON   BANK0   BANK1
  1123 ;;      Params:         0       0       0
  1124 ;;      Locals:         1       0       0
  1125 ;;      Temps:          0       2       0
  1126 ;;      Totals:         1       2       0
  1127 ;;Total ram usage:        3 bytes
  1128 ;; Hardware stack levels used:    1
  1129 ;; Hardware stack levels required when called:    3
  1130 ;; This function calls:
  1131 ;;		_LIN_Task_USART_Interrupt
  1132 ;; This function is called by:
  1133 ;;		Interrupt level 1
  1134 ;; This function uses a non-reentrant model
  1135 ;;
  1136                           
  1137  0004                     _isr:	
  1138                           
  1139                           ;incstack = 0
  1140                           ; Regs used in _isr: [wreg-fsr1h+status,2+status,0+pclath+cstack]
  1141  0004  3180               	pagesel	$
  1142  0005  0020               	movlb	0	; select bank0
  1143  0006  087F               	movf	127,w
  1144  0007  00E4               	movwf	??_isr+1
  1145                           
  1146                           ;main.c: 145: unsigned char data;
  1147                           ;main.c: 148: if(TMR2IE && TMR2IF)
  1148  0008  0021               	movlb	1	; select bank1
  1149  0009  1C91               	btfss	17,1	;volatile
  1150  000A  2817               	goto	i1l1532
  1151  000B  0020               	movlb	0	; select bank0
  1152  000C  1C91               	btfss	17,1	;volatile
  1153  000D  2817               	goto	i1l1532
  1154                           
  1155                           ;main.c: 149: {
  1156                           ;main.c: 150: TMR2IF = 0u;
  1157  000E  1091               	bcf	17,1	;volatile
  1158                           
  1159                           ;main.c: 151: timer_10ms_count++;
  1160  000F  3001               	movlw	1
  1161  0010  00E3               	movwf	??_isr
  1162  0011  0863               	movf	??_isr,w
  1163  0012  07AC               	addwf	_timer_10ms_count,f	;volatile
  1164                           
  1165                           ;main.c: 152: timer_100ms_count++;
  1166  0013  3001               	movlw	1
  1167  0014  00E3               	movwf	??_isr
  1168  0015  0863               	movf	??_isr,w
  1169  0016  07AB               	addwf	_timer_100ms_count,f	;volatile
  1170  0017                     i1l1532:	
  1171                           
  1172                           ;main.c: 153: }
  1173                           ;main.c: 156: if(PIR1bits.RCIF)
  1174  0017  0020               	movlb	0	; select bank0
  1175  0018  1E91               	btfss	17,5	;volatile
  1176  0019  2823               	goto	i1l87
  1177                           
  1178                           ;main.c: 157: {
  1179                           ;main.c: 158: RCIF = 0;
  1180  001A  1291               	bcf	17,5	;volatile
  1181                           
  1182                           ;main.c: 159: data = RCREG;
  1183  001B  0023               	movlb	3	; select bank3
  1184  001C  0819               	movf	25,w	;volatile
  1185  001D  0020               	movlb	0	; select bank0
  1186  001E  00E3               	movwf	??_isr
  1187  001F  0863               	movf	??_isr,w
  1188  0020  00FD               	movwf	isr@data
  1189                           
  1190                           ;main.c: 160: LIN_Task_USART_Interrupt(data);
  1191  0021  087D               	movf	isr@data,w
  1192  0022  2030               	fcall	_LIN_Task_USART_Interrupt
  1193  0023                     i1l87:	
  1194  0023  0020               	movlb	0	; select bank0
  1195  0024  0864               	movf	??_isr+1,w
  1196  0025  00FF               	movwf	127
  1197  0026  0009               	retfie
  1198  0027                     __end_of_isr:	
  1199                           
  1200                           	psect	text7
  1201  0030                     __ptext7:	
  1202 ;; *************** function _LIN_Task_USART_Interrupt *****************
  1203 ;; Defined at:
  1204 ;;		line 85 in file "D:\Nandu\Git_Workspace\EmbeddedProjects\AutomotiveProjects\LIN\Front_Park_Switch\hal_lin.c"
  1205 ;; Parameters:    Size  Location     Type
  1206 ;;  data            1    wreg     unsigned char 
  1207 ;; Auto vars:     Size  Location     Type
  1208 ;;  data            1   12[COMMON] unsigned char 
  1209 ;; Return value:  Size  Location     Type
  1210 ;;		None               void
  1211 ;; Registers used:
  1212 ;;		wreg, fsr0l, fsr0h, fsr1l, fsr1h, status,2, status,0, pclath, cstack
  1213 ;; Tracked objects:
  1214 ;;		On entry : 0/0
  1215 ;;		On exit  : 0/0
  1216 ;;		Unchanged: 0/0
  1217 ;; Data sizes:     COMMON   BANK0   BANK1
  1218 ;;      Params:         0       0       0
  1219 ;;      Locals:         1       0       0
  1220 ;;      Temps:          0       5       0
  1221 ;;      Totals:         1       5       0
  1222 ;;Total ram usage:        6 bytes
  1223 ;; Hardware stack levels used:    1
  1224 ;; Hardware stack levels required when called:    2
  1225 ;; This function calls:
  1226 ;;		_App_Notify_Frame_Received_USART
  1227 ;;		_LIN_Calc_Checksum
  1228 ;;		_LIN_Send_Data
  1229 ;;		___bmul
  1230 ;;		_memcpy
  1231 ;; This function is called by:
  1232 ;;		_isr
  1233 ;; This function uses a non-reentrant model
  1234 ;;
  1235                           
  1236                           
  1237                           ;psect for function _LIN_Task_USART_Interrupt
  1238  0030                     _LIN_Task_USART_Interrupt:	
  1239                           
  1240                           ;incstack = 0
  1241                           ; Regs used in _LIN_Task_USART_Interrupt: [wreg-fsr1h+status,2+status,0+pclath+cstack]
  1242                           ;LIN_Task_USART_Interrupt@data stored from wreg
  1243  0030  00FC               	movwf	LIN_Task_USART_Interrupt@data
  1244                           
  1245                           ;hal_lin.c: 87: static unsigned char dummy;
  1246                           ;hal_lin.c: 88: static unsigned char id_receive;
  1247                           ;hal_lin.c: 89: static unsigned char temp_cksum;
  1248                           ;hal_lin.c: 90: static unsigned char data_cnt;
  1249                           ;hal_lin.c: 91: static unsigned char id_index;
  1250                           ;hal_lin.c: 92: static unsigned char id;
  1251                           ;hal_lin.c: 93: static unsigned char byte;
  1252                           ;hal_lin.c: 94: static lin_msg_type_t id_type;
  1253                           ;hal_lin.c: 97: switch(Lin_State)
  1254  0031  29E0               	goto	i1l1522
  1255  0032                     i1l1408:	
  1256                           ;hal_lin.c: 98: {
  1257                           ;hal_lin.c: 99: case SYNC_BREAK_WAIT:
  1258                           
  1259                           
  1260                           ;hal_lin.c: 100: dummy = data;
  1261  0032  087C               	movf	LIN_Task_USART_Interrupt@data,w
  1262  0033  0020               	movlb	0	; select bank0
  1263  0034  00DE               	movwf	??_LIN_Task_USART_Interrupt
  1264  0035  085E               	movf	??_LIN_Task_USART_Interrupt,w
  1265  0036  00A4               	movwf	LIN_Task_USART_Interrupt@dummy
  1266                           
  1267                           ;hal_lin.c: 101: data_cnt=0u;
  1268  0037  01A3               	clrf	LIN_Task_USART_Interrupt@data_cnt
  1269                           
  1270                           ;hal_lin.c: 102: byte=0u;
  1271  0038  01A2               	clrf	LIN_Task_USART_Interrupt@byte
  1272                           
  1273                           ;hal_lin.c: 103: id_index=0u;
  1274  0039  01A6               	clrf	LIN_Task_USART_Interrupt@id_index
  1275                           
  1276                           ;hal_lin.c: 104: if(dummy == 0u)
  1277  003A  08A4               	movf	LIN_Task_USART_Interrupt@dummy,f
  1278  003B  1D03               	skipz
  1279  003C  2842               	goto	i1l1420
  1280                           
  1281                           ;hal_lin.c: 105: {
  1282                           ;hal_lin.c: 106: Lin_State = SYNC_WAIT;
  1283  003D  3002               	movlw	2
  1284  003E  00DE               	movwf	??_LIN_Task_USART_Interrupt
  1285  003F  085E               	movf	??_LIN_Task_USART_Interrupt,w
  1286  0040  00AA               	movwf	_Lin_State	;volatile
  1287                           
  1288                           ;hal_lin.c: 107: }
  1289  0041  0008               	return
  1290  0042                     i1l1420:	
  1291                           
  1292                           ;hal_lin.c: 108: else
  1293                           ;hal_lin.c: 109: {
  1294                           ;hal_lin.c: 110: Lin_State = SYNC_BREAK_WAIT;
  1295  0042  3001               	movlw	1
  1296  0043  00DE               	movwf	??_LIN_Task_USART_Interrupt
  1297  0044  085E               	movf	??_LIN_Task_USART_Interrupt,w
  1298  0045  00AA               	movwf	_Lin_State	;volatile
  1299                           
  1300                           ;hal_lin.c: 111: }
  1301                           ;hal_lin.c: 112: break;
  1302  0046  0008               	return
  1303  0047                     i1l1422:	
  1304                           ;hal_lin.c: 113: case SYNC_WAIT:
  1305                           
  1306                           
  1307                           ;hal_lin.c: 114: dummy = data;
  1308  0047  087C               	movf	LIN_Task_USART_Interrupt@data,w
  1309  0048  00DE               	movwf	??_LIN_Task_USART_Interrupt
  1310  0049  085E               	movf	??_LIN_Task_USART_Interrupt,w
  1311  004A  00A4               	movwf	LIN_Task_USART_Interrupt@dummy
  1312                           
  1313                           ;hal_lin.c: 115: if( dummy == 0x55u)
  1314  004B  0824               	movf	LIN_Task_USART_Interrupt@dummy,w
  1315  004C  3A55               	xorlw	85
  1316  004D  1D03               	skipz
  1317  004E  2854               	goto	i1l1426
  1318                           
  1319                           ;hal_lin.c: 116: {
  1320                           ;hal_lin.c: 117: Lin_State = ID_WAIT;
  1321  004F  3003               	movlw	3
  1322  0050  00DE               	movwf	??_LIN_Task_USART_Interrupt
  1323  0051  085E               	movf	??_LIN_Task_USART_Interrupt,w
  1324  0052  00AA               	movwf	_Lin_State	;volatile
  1325                           
  1326                           ;hal_lin.c: 118: }
  1327  0053  0008               	return
  1328  0054                     i1l1426:	
  1329                           
  1330                           ;hal_lin.c: 119: else
  1331                           ;hal_lin.c: 120: {
  1332                           ;hal_lin.c: 121: Lin_State = SYNC_BREAK_WAIT;
  1333  0054  3001               	movlw	1
  1334  0055  00DE               	movwf	??_LIN_Task_USART_Interrupt
  1335  0056  085E               	movf	??_LIN_Task_USART_Interrupt,w
  1336  0057  00AA               	movwf	_Lin_State	;volatile
  1337                           
  1338                           ;hal_lin.c: 122: }
  1339                           ;hal_lin.c: 123: break;
  1340  0058  0008               	return
  1341  0059                     i1l1428:	
  1342                           ;hal_lin.c: 124: case ID_WAIT:
  1343                           
  1344                           
  1345                           ;hal_lin.c: 125: id_receive = data;
  1346  0059  087C               	movf	LIN_Task_USART_Interrupt@data,w
  1347  005A  00DE               	movwf	??_LIN_Task_USART_Interrupt
  1348  005B  085E               	movf	??_LIN_Task_USART_Interrupt,w
  1349  005C  00A7               	movwf	LIN_Task_USART_Interrupt@id_receive
  1350                           
  1351                           ;hal_lin.c: 126: for(id=0;id<2u;id++)
  1352  005D  01A5               	clrf	LIN_Task_USART_Interrupt@id
  1353  005E                     L1:	
  1354  005E  3002               	movlw	2
  1355  005F  0225               	subwf	LIN_Task_USART_Interrupt@id,w
  1356  0060  1803               	btfsc	3,0
  1357  0061  0008               	return
  1358                           
  1359                           ;hal_lin.c: 127: {
  1360                           ;hal_lin.c: 128: if(id_receive == (Lin_Msg[id].id))
  1361  0062  0825               	movf	LIN_Task_USART_Interrupt@id,w
  1362  0063  00DE               	movwf	??_LIN_Task_USART_Interrupt
  1363  0064  3001               	movlw	1
  1364  0065                     u56_25:	
  1365  0065  35DE               	lslf	??_LIN_Task_USART_Interrupt,f
  1366  0066  3EFF               	addlw	-1
  1367  0067  1D03               	skipz
  1368  0068  2865               	goto	u56_25
  1369  0069  355E               	lslf	??_LIN_Task_USART_Interrupt,w
  1370  006A  3E05               	addlw	low (_Lin_Msg| (0+32768))
  1371  006B  3183               	movlp	high __stringtab
  1372  006C  000A               	callw
  1373  006D  3180               	pagesel	$	;select current page
  1374  006E  0627               	xorwf	LIN_Task_USART_Interrupt@id_receive,w
  1375  006F  1D03               	skipz
  1376  0070  28F1               	goto	i1l1466
  1377                           
  1378                           ;hal_lin.c: 129: {
  1379                           ;hal_lin.c: 130: byte = 0;
  1380  0071  01A2               	clrf	LIN_Task_USART_Interrupt@byte
  1381                           
  1382                           ;hal_lin.c: 131: id_index = id;
  1383  0072  0825               	movf	LIN_Task_USART_Interrupt@id,w
  1384  0073  00DE               	movwf	??_LIN_Task_USART_Interrupt
  1385  0074  085E               	movf	??_LIN_Task_USART_Interrupt,w
  1386  0075  00A6               	movwf	LIN_Task_USART_Interrupt@id_index
  1387                           
  1388                           ;hal_lin.c: 132: id_type = (Lin_Msg[id_index].type);
  1389  0076  0826               	movf	LIN_Task_USART_Interrupt@id_index,w
  1390  0077  00DE               	movwf	??_LIN_Task_USART_Interrupt
  1391  0078  3001               	movlw	1
  1392  0079                     u58_25:	
  1393  0079  35DE               	lslf	??_LIN_Task_USART_Interrupt,f
  1394  007A  3EFF               	addlw	-1
  1395  007B  1D03               	skipz
  1396  007C  2879               	goto	u58_25
  1397  007D  355E               	lslf	??_LIN_Task_USART_Interrupt,w
  1398  007E  3E02               	addlw	2
  1399  007F  3E05               	addlw	low (_Lin_Msg| (0+32768))
  1400  0080  3183               	movlp	high __stringtab
  1401  0081  000A               	callw
  1402  0082  3180               	pagesel	$	;select current page
  1403  0083  00DF               	movwf	??_LIN_Task_USART_Interrupt+1
  1404  0084  085F               	movf	??_LIN_Task_USART_Interrupt+1,w
  1405  0085  00A8               	movwf	LIN_Task_USART_Interrupt@id_type
  1406                           
  1407                           ;hal_lin.c: 133: if(id_type == RECEIVE_PAYLOAD)
  1408  0086  0828               	movf	LIN_Task_USART_Interrupt@id_type,w
  1409  0087  3A02               	xorlw	2
  1410  0088  1D03               	skipz
  1411  0089  28AD               	goto	i1l1452
  1412                           
  1413                           ;hal_lin.c: 134: {
  1414                           ;hal_lin.c: 135: Lin_State = DATA_RECEIVE;
  1415  008A  3005               	movlw	5
  1416  008B  00DE               	movwf	??_LIN_Task_USART_Interrupt
  1417  008C  085E               	movf	??_LIN_Task_USART_Interrupt,w
  1418  008D  00AA               	movwf	_Lin_State	;volatile
  1419                           
  1420                           ;hal_lin.c: 136: data_cnt = (Lin_Msg[id_index].len);
  1421  008E  0826               	movf	LIN_Task_USART_Interrupt@id_index,w
  1422  008F  00DE               	movwf	??_LIN_Task_USART_Interrupt
  1423  0090  3001               	movlw	1
  1424  0091                     u60_25:	
  1425  0091  35DE               	lslf	??_LIN_Task_USART_Interrupt,f
  1426  0092  3EFF               	addlw	-1
  1427  0093  1D03               	skipz
  1428  0094  2891               	goto	u60_25
  1429  0095  355E               	lslf	??_LIN_Task_USART_Interrupt,w
  1430  0096  3E01               	addlw	1
  1431  0097  3E05               	addlw	low (_Lin_Msg| (0+32768))
  1432  0098  3183               	movlp	high __stringtab
  1433  0099  000A               	callw
  1434  009A  3180               	pagesel	$	;select current page
  1435  009B  00DF               	movwf	??_LIN_Task_USART_Interrupt+1
  1436  009C  085F               	movf	??_LIN_Task_USART_Interrupt+1,w
  1437  009D  00A3               	movwf	LIN_Task_USART_Interrupt@data_cnt
  1438                           
  1439                           ;hal_lin.c: 137: Lin_Data[id_index].id = id_receive;
  1440  009E  0827               	movf	LIN_Task_USART_Interrupt@id_receive,w
  1441  009F  00DE               	movwf	??_LIN_Task_USART_Interrupt
  1442  00A0  300A               	movlw	10
  1443  00A1  00DF               	movwf	??_LIN_Task_USART_Interrupt+1
  1444  00A2  085F               	movf	??_LIN_Task_USART_Interrupt+1,w
  1445  00A3  00F0               	movwf	___bmul@multiplicand
  1446  00A4  0826               	movf	LIN_Task_USART_Interrupt@id_index,w
  1447  00A5  22DC               	fcall	___bmul
  1448  00A6  3E2D               	addlw	_Lin_Data& (0+255)
  1449  00A7  0086               	movwf	6
  1450  00A8  0187               	clrf	7
  1451  00A9  0020               	movlb	0	; select bank0
  1452  00AA  085E               	movf	??_LIN_Task_USART_Interrupt,w
  1453  00AB  0081               	movwf	1
  1454                           
  1455                           ;hal_lin.c: 138: }
  1456  00AC  28F1               	goto	i1l1466
  1457  00AD                     i1l1452:	
  1458                           
  1459                           ;hal_lin.c: 139: else if(id_type == TRANSMIT_PAYLOAD)
  1460  00AD  0828               	movf	LIN_Task_USART_Interrupt@id_type,w
  1461  00AE  3A01               	xorlw	1
  1462  00AF  1D03               	skipz
  1463  00B0  28EC               	goto	i1l1464
  1464                           
  1465                           ;hal_lin.c: 140: {
  1466                           ;hal_lin.c: 141: Lin_State = DATA_TRANSMIT;
  1467  00B1  3004               	movlw	4
  1468  00B2  00DE               	movwf	??_LIN_Task_USART_Interrupt
  1469  00B3  085E               	movf	??_LIN_Task_USART_Interrupt,w
  1470  00B4  00AA               	movwf	_Lin_State	;volatile
  1471                           
  1472                           ;hal_lin.c: 142: data_cnt = (Lin_Msg[id_index].len);
  1473  00B5  0826               	movf	LIN_Task_USART_Interrupt@id_index,w
  1474  00B6  00DE               	movwf	??_LIN_Task_USART_Interrupt
  1475  00B7  3001               	movlw	1
  1476  00B8                     u62_25:	
  1477  00B8  35DE               	lslf	??_LIN_Task_USART_Interrupt,f
  1478  00B9  3EFF               	addlw	-1
  1479  00BA  1D03               	skipz
  1480  00BB  28B8               	goto	u62_25
  1481  00BC  355E               	lslf	??_LIN_Task_USART_Interrupt,w
  1482  00BD  3E01               	addlw	1
  1483  00BE  3E05               	addlw	low (_Lin_Msg| (0+32768))
  1484  00BF  3183               	movlp	high __stringtab
  1485  00C0  000A               	callw
  1486  00C1  3180               	pagesel	$	;select current page
  1487  00C2  00DF               	movwf	??_LIN_Task_USART_Interrupt+1
  1488  00C3  085F               	movf	??_LIN_Task_USART_Interrupt+1,w
  1489  00C4  00A3               	movwf	LIN_Task_USART_Interrupt@data_cnt
  1490                           
  1491                           ;hal_lin.c: 143: Lin_Data[id_index].id = id_receive;
  1492  00C5  0827               	movf	LIN_Task_USART_Interrupt@id_receive,w
  1493  00C6  00DE               	movwf	??_LIN_Task_USART_Interrupt
  1494  00C7  300A               	movlw	10
  1495  00C8  00DF               	movwf	??_LIN_Task_USART_Interrupt+1
  1496  00C9  085F               	movf	??_LIN_Task_USART_Interrupt+1,w
  1497  00CA  00F0               	movwf	___bmul@multiplicand
  1498  00CB  0826               	movf	LIN_Task_USART_Interrupt@id_index,w
  1499  00CC  22DC               	fcall	___bmul
  1500  00CD  3E2D               	addlw	_Lin_Data& (0+255)
  1501  00CE  0086               	movwf	6
  1502  00CF  0187               	clrf	7
  1503  00D0  0020               	movlb	0	; select bank0
  1504  00D1  085E               	movf	??_LIN_Task_USART_Interrupt,w
  1505  00D2  0081               	movwf	1
  1506                           
  1507                           ;hal_lin.c: 144: dummy = Lin_Data[id_index].data[byte];
  1508  00D3  3001               	movlw	1
  1509  00D4  0722               	addwf	LIN_Task_USART_Interrupt@byte,w
  1510  00D5  00DE               	movwf	??_LIN_Task_USART_Interrupt
  1511  00D6  302D               	movlw	_Lin_Data& (0+255)
  1512  00D7  075E               	addwf	??_LIN_Task_USART_Interrupt,w
  1513  00D8  00DF               	movwf	??_LIN_Task_USART_Interrupt+1
  1514  00D9  300A               	movlw	10
  1515  00DA  00E0               	movwf	??_LIN_Task_USART_Interrupt+2
  1516  00DB  0860               	movf	??_LIN_Task_USART_Interrupt+2,w
  1517  00DC  00F0               	movwf	___bmul@multiplicand
  1518  00DD  0826               	movf	LIN_Task_USART_Interrupt@id_index,w
  1519  00DE  22DC               	fcall	___bmul
  1520  00DF  0020               	movlb	0	; select bank0
  1521  00E0  075F               	addwf	??_LIN_Task_USART_Interrupt+1,w
  1522  00E1  00E1               	movwf	??_LIN_Task_USART_Interrupt+3
  1523  00E2  0861               	movf	??_LIN_Task_USART_Interrupt+3,w
  1524  00E3  0086               	movwf	6
  1525  00E4  0187               	clrf	7
  1526  00E5  0801               	movf	1,w
  1527  00E6  00E2               	movwf	??_LIN_Task_USART_Interrupt+4
  1528  00E7  0862               	movf	??_LIN_Task_USART_Interrupt+4,w
  1529  00E8  00A4               	movwf	LIN_Task_USART_Interrupt@dummy
  1530                           
  1531                           ;hal_lin.c: 145: LIN_Send_Data(dummy);
  1532  00E9  0824               	movf	LIN_Task_USART_Interrupt@dummy,w
  1533  00EA  230D               	fcall	_LIN_Send_Data
  1534                           
  1535                           ;hal_lin.c: 146: }
  1536  00EB  28F1               	goto	i1l1466
  1537  00EC                     i1l1464:	
  1538                           
  1539                           ;hal_lin.c: 147: else
  1540                           ;hal_lin.c: 148: {
  1541                           ;hal_lin.c: 149: Lin_State = SYNC_BREAK_WAIT;
  1542  00EC  3001               	movlw	1
  1543  00ED  0020               	movlb	0	; select bank0
  1544  00EE  00DE               	movwf	??_LIN_Task_USART_Interrupt
  1545  00EF  085E               	movf	??_LIN_Task_USART_Interrupt,w
  1546  00F0  00AA               	movwf	_Lin_State	;volatile
  1547  00F1                     i1l1466:	
  1548  00F1  3001               	movlw	1
  1549  00F2  0020               	movlb	0	; select bank0
  1550  00F3  00DE               	movwf	??_LIN_Task_USART_Interrupt
  1551  00F4  085E               	movf	??_LIN_Task_USART_Interrupt,w
  1552  00F5  07A5               	addwf	LIN_Task_USART_Interrupt@id,f
  1553  00F6  285E               	goto	L1
  1554  00F7                     i1l1470:	
  1555                           ;hal_lin.c: 154: case DATA_RECEIVE:
  1556                           
  1557                           ;hal_lin.c: 150: }
  1558                           ;hal_lin.c: 151: }
  1559                           ;hal_lin.c: 152: }
  1560                           ;hal_lin.c: 153: break;
  1561                           
  1562                           
  1563                           ;hal_lin.c: 155: dummy = data;
  1564  00F7  087C               	movf	LIN_Task_USART_Interrupt@data,w
  1565  00F8  00DE               	movwf	??_LIN_Task_USART_Interrupt
  1566  00F9  085E               	movf	??_LIN_Task_USART_Interrupt,w
  1567  00FA  00A4               	movwf	LIN_Task_USART_Interrupt@dummy
  1568                           
  1569                           ;hal_lin.c: 156: Lin_Data[id_index].data[byte] = dummy;
  1570  00FB  0824               	movf	LIN_Task_USART_Interrupt@dummy,w
  1571  00FC  00DE               	movwf	??_LIN_Task_USART_Interrupt
  1572  00FD  3001               	movlw	1
  1573  00FE  0722               	addwf	LIN_Task_USART_Interrupt@byte,w
  1574  00FF  00DF               	movwf	??_LIN_Task_USART_Interrupt+1
  1575  0100  302D               	movlw	_Lin_Data& (0+255)
  1576  0101  075F               	addwf	??_LIN_Task_USART_Interrupt+1,w
  1577  0102  00E0               	movwf	??_LIN_Task_USART_Interrupt+2
  1578  0103  300A               	movlw	10
  1579  0104  00E1               	movwf	??_LIN_Task_USART_Interrupt+3
  1580  0105  0861               	movf	??_LIN_Task_USART_Interrupt+3,w
  1581  0106  00F0               	movwf	___bmul@multiplicand
  1582  0107  0826               	movf	LIN_Task_USART_Interrupt@id_index,w
  1583  0108  22DC               	fcall	___bmul
  1584  0109  0020               	movlb	0	; select bank0
  1585  010A  0760               	addwf	??_LIN_Task_USART_Interrupt+2,w
  1586  010B  00E2               	movwf	??_LIN_Task_USART_Interrupt+4
  1587  010C  0862               	movf	??_LIN_Task_USART_Interrupt+4,w
  1588  010D  0086               	movwf	6
  1589  010E  0187               	clrf	7
  1590  010F  085E               	movf	??_LIN_Task_USART_Interrupt,w
  1591  0110  0081               	movwf	1
  1592                           
  1593                           ;hal_lin.c: 157: if(byte == data_cnt)
  1594  0111  0822               	movf	LIN_Task_USART_Interrupt@byte,w
  1595  0112  0623               	xorwf	LIN_Task_USART_Interrupt@data_cnt,w
  1596  0113  1D03               	skipz
  1597  0114  291A               	goto	i1l1478
  1598                           
  1599                           ;hal_lin.c: 158: {
  1600                           ;hal_lin.c: 159: Lin_State = CHKSUM_RECEIVE;
  1601  0115  3007               	movlw	7
  1602  0116  00DE               	movwf	??_LIN_Task_USART_Interrupt
  1603  0117  085E               	movf	??_LIN_Task_USART_Interrupt,w
  1604  0118  00AA               	movwf	_Lin_State	;volatile
  1605                           
  1606                           ;hal_lin.c: 160: }
  1607  0119  0008               	return
  1608  011A                     i1l1478:	
  1609                           
  1610                           ;hal_lin.c: 161: else
  1611                           ;hal_lin.c: 162: {
  1612                           ;hal_lin.c: 163: byte++;
  1613  011A  3001               	movlw	1
  1614  011B  00DE               	movwf	??_LIN_Task_USART_Interrupt
  1615  011C  085E               	movf	??_LIN_Task_USART_Interrupt,w
  1616  011D  07A2               	addwf	LIN_Task_USART_Interrupt@byte,f
  1617                           
  1618                           ;hal_lin.c: 164: }
  1619                           ;hal_lin.c: 165: break;
  1620  011E  0008               	return
  1621  011F                     i1l1480:	
  1622                           ;hal_lin.c: 166: case DATA_TRANSMIT:
  1623                           
  1624                           
  1625                           ;hal_lin.c: 167: if((data_cnt) && (byte >= (data_cnt-1u)))
  1626  011F  0823               	movf	LIN_Task_USART_Interrupt@data_cnt,w
  1627  0120  1903               	btfsc	3,2
  1628  0121  295B               	goto	i1l1492
  1629  0122  0823               	movf	LIN_Task_USART_Interrupt@data_cnt,w
  1630  0123  3EFF               	addlw	255
  1631  0124  00DE               	movwf	??_LIN_Task_USART_Interrupt
  1632  0125  30FF               	movlw	255
  1633  0126  1803               	skipnc
  1634  0127  3000               	movlw	0
  1635  0128  00DF               	movwf	??_LIN_Task_USART_Interrupt+1
  1636  0129  0822               	movf	LIN_Task_USART_Interrupt@byte,w
  1637  012A  00E0               	movwf	??_LIN_Task_USART_Interrupt+2
  1638  012B  01E1               	clrf	??_LIN_Task_USART_Interrupt+3
  1639  012C  085F               	movf	??_LIN_Task_USART_Interrupt+1,w
  1640  012D  0261               	subwf	??_LIN_Task_USART_Interrupt+3,w
  1641  012E  1D03               	skipz
  1642  012F  2932               	goto	u66_25
  1643  0130  085E               	movf	??_LIN_Task_USART_Interrupt,w
  1644  0131  0260               	subwf	??_LIN_Task_USART_Interrupt+2,w
  1645  0132                     u66_25:	
  1646  0132  1C03               	skipc
  1647  0133  295B               	goto	i1l1492
  1648                           
  1649                           ;hal_lin.c: 168: {
  1650                           ;hal_lin.c: 169: Lin_State = CHKSUM_TRANSMIT;
  1651  0134  3006               	movlw	6
  1652  0135  00DE               	movwf	??_LIN_Task_USART_Interrupt
  1653  0136  085E               	movf	??_LIN_Task_USART_Interrupt,w
  1654  0137  00AA               	movwf	_Lin_State	;volatile
  1655                           
  1656                           ;hal_lin.c: 170: temp_cksum = LIN_Calc_Checksum((unsigned char*)&Lin_Data[id_index],(dat
      +                          a_cnt+1u));
  1657  0138  0823               	movf	LIN_Task_USART_Interrupt@data_cnt,w
  1658  0139  3E01               	addlw	1
  1659  013A  00DE               	movwf	??_LIN_Task_USART_Interrupt
  1660  013B  085E               	movf	??_LIN_Task_USART_Interrupt,w
  1661  013C  00F4               	movwf	LIN_Calc_Checksum@length
  1662  013D  300A               	movlw	10
  1663  013E  00DF               	movwf	??_LIN_Task_USART_Interrupt+1
  1664  013F  085F               	movf	??_LIN_Task_USART_Interrupt+1,w
  1665  0140  00F0               	movwf	___bmul@multiplicand
  1666  0141  0826               	movf	LIN_Task_USART_Interrupt@id_index,w
  1667  0142  22DC               	fcall	___bmul
  1668  0143  3E2D               	addlw	_Lin_Data& (0+255)
  1669  0144  2230               	fcall	_LIN_Calc_Checksum
  1670  0145  0020               	movlb	0	; select bank0
  1671  0146  00E0               	movwf	??_LIN_Task_USART_Interrupt+2
  1672  0147  0860               	movf	??_LIN_Task_USART_Interrupt+2,w
  1673  0148  00A9               	movwf	LIN_Task_USART_Interrupt@temp_cksum
  1674                           
  1675                           ;hal_lin.c: 171: Lin_Data[id_index].checksum = temp_cksum;
  1676  0149  0829               	movf	LIN_Task_USART_Interrupt@temp_cksum,w
  1677  014A  00DE               	movwf	??_LIN_Task_USART_Interrupt
  1678  014B  300A               	movlw	10
  1679  014C  00DF               	movwf	??_LIN_Task_USART_Interrupt+1
  1680  014D  085F               	movf	??_LIN_Task_USART_Interrupt+1,w
  1681  014E  00F0               	movwf	___bmul@multiplicand
  1682  014F  0826               	movf	LIN_Task_USART_Interrupt@id_index,w
  1683  0150  22DC               	fcall	___bmul
  1684  0151  3E09               	addlw	9
  1685  0152  3E2D               	addlw	_Lin_Data& (0+255)
  1686  0153  0086               	movwf	6
  1687  0154  0187               	clrf	7
  1688  0155  0020               	movlb	0	; select bank0
  1689  0156  085E               	movf	??_LIN_Task_USART_Interrupt,w
  1690  0157  0081               	movwf	1
  1691                           
  1692                           ;hal_lin.c: 172: LIN_Send_Data(dummy);
  1693  0158  0824               	movf	LIN_Task_USART_Interrupt@dummy,w
  1694  0159  230D               	fcall	_LIN_Send_Data
  1695                           
  1696                           ;hal_lin.c: 173: }
  1697  015A  0008               	return
  1698  015B                     i1l1492:	
  1699                           
  1700                           ;hal_lin.c: 174: else
  1701                           ;hal_lin.c: 175: {
  1702                           ;hal_lin.c: 176: byte++;
  1703  015B  3001               	movlw	1
  1704  015C  0020               	movlb	0	; select bank0
  1705  015D  00DE               	movwf	??_LIN_Task_USART_Interrupt
  1706  015E  085E               	movf	??_LIN_Task_USART_Interrupt,w
  1707  015F  07A2               	addwf	LIN_Task_USART_Interrupt@byte,f
  1708                           
  1709                           ;hal_lin.c: 177: dummy = Lin_Data[id_index].data[byte];
  1710  0160  3001               	movlw	1
  1711  0161  0722               	addwf	LIN_Task_USART_Interrupt@byte,w
  1712  0162  00DE               	movwf	??_LIN_Task_USART_Interrupt
  1713  0163  302D               	movlw	_Lin_Data& (0+255)
  1714  0164  075E               	addwf	??_LIN_Task_USART_Interrupt,w
  1715  0165  00DF               	movwf	??_LIN_Task_USART_Interrupt+1
  1716  0166  300A               	movlw	10
  1717  0167  00E0               	movwf	??_LIN_Task_USART_Interrupt+2
  1718  0168  0860               	movf	??_LIN_Task_USART_Interrupt+2,w
  1719  0169  00F0               	movwf	___bmul@multiplicand
  1720  016A  0826               	movf	LIN_Task_USART_Interrupt@id_index,w
  1721  016B  22DC               	fcall	___bmul
  1722  016C  0020               	movlb	0	; select bank0
  1723  016D  075F               	addwf	??_LIN_Task_USART_Interrupt+1,w
  1724  016E  00E1               	movwf	??_LIN_Task_USART_Interrupt+3
  1725  016F  0861               	movf	??_LIN_Task_USART_Interrupt+3,w
  1726  0170  0086               	movwf	6
  1727  0171  0187               	clrf	7
  1728  0172  0801               	movf	1,w
  1729  0173  00E2               	movwf	??_LIN_Task_USART_Interrupt+4
  1730  0174  0862               	movf	??_LIN_Task_USART_Interrupt+4,w
  1731  0175  00A4               	movwf	LIN_Task_USART_Interrupt@dummy
  1732                           
  1733                           ;hal_lin.c: 178: LIN_Send_Data(dummy);
  1734  0176  0824               	movf	LIN_Task_USART_Interrupt@dummy,w
  1735  0177  230D               	fcall	_LIN_Send_Data
  1736                           
  1737                           ;hal_lin.c: 179: }
  1738                           ;hal_lin.c: 180: break;
  1739  0178  0008               	return
  1740  0179                     i1l1498:	
  1741                           ;hal_lin.c: 181: case CHKSUM_RECEIVE:
  1742                           
  1743                           
  1744                           ;hal_lin.c: 182: dummy = data;
  1745  0179  087C               	movf	LIN_Task_USART_Interrupt@data,w
  1746  017A  0020               	movlb	0	; select bank0
  1747  017B  00DE               	movwf	??_LIN_Task_USART_Interrupt
  1748  017C  085E               	movf	??_LIN_Task_USART_Interrupt,w
  1749  017D  00A4               	movwf	LIN_Task_USART_Interrupt@dummy
  1750                           
  1751                           ;hal_lin.c: 183: temp_cksum = LIN_Calc_Checksum((unsigned char*)&Lin_Data[id_index],(dat
      +                          a_cnt+1u));
  1752  017E  0823               	movf	LIN_Task_USART_Interrupt@data_cnt,w
  1753  017F  3E01               	addlw	1
  1754  0180  00DE               	movwf	??_LIN_Task_USART_Interrupt
  1755  0181  085E               	movf	??_LIN_Task_USART_Interrupt,w
  1756  0182  00F4               	movwf	LIN_Calc_Checksum@length
  1757  0183  300A               	movlw	10
  1758  0184  00DF               	movwf	??_LIN_Task_USART_Interrupt+1
  1759  0185  085F               	movf	??_LIN_Task_USART_Interrupt+1,w
  1760  0186  00F0               	movwf	___bmul@multiplicand
  1761  0187  0826               	movf	LIN_Task_USART_Interrupt@id_index,w
  1762  0188  22DC               	fcall	___bmul
  1763  0189  3E2D               	addlw	_Lin_Data& (0+255)
  1764  018A  2230               	fcall	_LIN_Calc_Checksum
  1765  018B  0020               	movlb	0	; select bank0
  1766  018C  00E0               	movwf	??_LIN_Task_USART_Interrupt+2
  1767  018D  0860               	movf	??_LIN_Task_USART_Interrupt+2,w
  1768  018E  00A9               	movwf	LIN_Task_USART_Interrupt@temp_cksum
  1769                           
  1770                           ;hal_lin.c: 184: if(temp_cksum == dummy)
  1771  018F  0829               	movf	LIN_Task_USART_Interrupt@temp_cksum,w
  1772  0190  0624               	xorwf	LIN_Task_USART_Interrupt@dummy,w
  1773  0191  1D03               	skipz
  1774  0192  29C8               	goto	i1l1512
  1775                           
  1776                           ;hal_lin.c: 185: {
  1777                           ;hal_lin.c: 186: Lin_Data[id_index].checksum = dummy;
  1778  0193  0824               	movf	LIN_Task_USART_Interrupt@dummy,w
  1779  0194  00DE               	movwf	??_LIN_Task_USART_Interrupt
  1780  0195  300A               	movlw	10
  1781  0196  00DF               	movwf	??_LIN_Task_USART_Interrupt+1
  1782  0197  085F               	movf	??_LIN_Task_USART_Interrupt+1,w
  1783  0198  00F0               	movwf	___bmul@multiplicand
  1784  0199  0826               	movf	LIN_Task_USART_Interrupt@id_index,w
  1785  019A  22DC               	fcall	___bmul
  1786  019B  3E09               	addlw	9
  1787  019C  3E2D               	addlw	_Lin_Data& (0+255)
  1788  019D  0086               	movwf	6
  1789  019E  0187               	clrf	7
  1790  019F  0020               	movlb	0	; select bank0
  1791  01A0  085E               	movf	??_LIN_Task_USART_Interrupt,w
  1792  01A1  0081               	movwf	1
  1793                           
  1794                           ;hal_lin.c: 187: Lin_State = SYNC_BREAK_WAIT;
  1795  01A2  3001               	movlw	1
  1796  01A3  00DE               	movwf	??_LIN_Task_USART_Interrupt
  1797  01A4  085E               	movf	??_LIN_Task_USART_Interrupt,w
  1798  01A5  00AA               	movwf	_Lin_State	;volatile
  1799                           
  1800                           ;hal_lin.c: 188: memcpy(Lin_Msg[id_index].buf_ptr,(unsigned char*)&Lin_Data[id_index].da
      +                          ta,8u);
  1801  01A6  300A               	movlw	10
  1802  01A7  00DE               	movwf	??_LIN_Task_USART_Interrupt
  1803  01A8  085E               	movf	??_LIN_Task_USART_Interrupt,w
  1804  01A9  00F0               	movwf	___bmul@multiplicand
  1805  01AA  0826               	movf	LIN_Task_USART_Interrupt@id_index,w
  1806  01AB  22DC               	fcall	___bmul
  1807  01AC  3E01               	addlw	1
  1808  01AD  3E2D               	addlw	_Lin_Data& (0+255)
  1809  01AE  0020               	movlb	0	; select bank0
  1810  01AF  00DF               	movwf	??_LIN_Task_USART_Interrupt+1
  1811  01B0  085F               	movf	??_LIN_Task_USART_Interrupt+1,w
  1812  01B1  00F4               	movwf	memcpy@s1
  1813  01B2  3008               	movlw	8
  1814  01B3  00F5               	movwf	memcpy@n
  1815  01B4  3000               	movlw	0
  1816  01B5  00F6               	movwf	memcpy@n+1
  1817  01B6  0826               	movf	LIN_Task_USART_Interrupt@id_index,w
  1818  01B7  00E0               	movwf	??_LIN_Task_USART_Interrupt+2
  1819  01B8  3001               	movlw	1
  1820  01B9                     u68_25:	
  1821  01B9  35E0               	lslf	??_LIN_Task_USART_Interrupt+2,f
  1822  01BA  3EFF               	addlw	-1
  1823  01BB  1D03               	skipz
  1824  01BC  29B9               	goto	u68_25
  1825  01BD  3560               	lslf	??_LIN_Task_USART_Interrupt+2,w
  1826  01BE  3E03               	addlw	3
  1827  01BF  3E05               	addlw	low (_Lin_Msg| (0+32768))
  1828  01C0  3183               	movlp	high __stringtab
  1829  01C1  000A               	callw
  1830  01C2  3180               	pagesel	$	;select current page
  1831  01C3  225D               	fcall	_memcpy
  1832                           
  1833                           ;hal_lin.c: 189: App_Notify_Frame_Received_USART(id_index);
  1834  01C4  0020               	movlb	0	; select bank0
  1835  01C5  0826               	movf	LIN_Task_USART_Interrupt@id_index,w
  1836  01C6  21F9               	fcall	_App_Notify_Frame_Received_USART
  1837                           
  1838                           ;hal_lin.c: 190: }
  1839  01C7  0008               	return
  1840  01C8                     i1l1512:	
  1841                           
  1842                           ;hal_lin.c: 191: else
  1843                           ;hal_lin.c: 192: {
  1844                           ;hal_lin.c: 193: Lin_State = SYNC_BREAK_WAIT;
  1845  01C8  3001               	movlw	1
  1846  01C9  0020               	movlb	0	; select bank0
  1847  01CA  00DE               	movwf	??_LIN_Task_USART_Interrupt
  1848  01CB  085E               	movf	??_LIN_Task_USART_Interrupt,w
  1849  01CC  00AA               	movwf	_Lin_State	;volatile
  1850                           
  1851                           ;hal_lin.c: 194: }
  1852                           ;hal_lin.c: 195: break;
  1853  01CD  0008               	return
  1854  01CE                     i1l1514:	
  1855                           ;hal_lin.c: 196: case CHKSUM_TRANSMIT:
  1856                           
  1857                           
  1858                           ;hal_lin.c: 197: dummy = data;
  1859  01CE  087C               	movf	LIN_Task_USART_Interrupt@data,w
  1860  01CF  00DE               	movwf	??_LIN_Task_USART_Interrupt
  1861  01D0  085E               	movf	??_LIN_Task_USART_Interrupt,w
  1862  01D1  00A4               	movwf	LIN_Task_USART_Interrupt@dummy
  1863                           
  1864                           ;hal_lin.c: 198: if(temp_cksum == dummy)
  1865  01D2  0829               	movf	LIN_Task_USART_Interrupt@temp_cksum,w
  1866  01D3  0624               	xorwf	LIN_Task_USART_Interrupt@dummy,w
  1867  01D4  1D03               	skipz
  1868  01D5  29DB               	goto	i1l1518
  1869                           
  1870                           ;hal_lin.c: 199: {
  1871                           ;hal_lin.c: 200: Lin_State = SYNC_BREAK_WAIT;
  1872  01D6  3001               	movlw	1
  1873  01D7  00DE               	movwf	??_LIN_Task_USART_Interrupt
  1874  01D8  085E               	movf	??_LIN_Task_USART_Interrupt,w
  1875  01D9  00AA               	movwf	_Lin_State	;volatile
  1876                           
  1877                           ;hal_lin.c: 201: }
  1878  01DA  0008               	return
  1879  01DB                     i1l1518:	
  1880                           
  1881                           ;hal_lin.c: 202: else
  1882                           ;hal_lin.c: 203: {
  1883                           ;hal_lin.c: 204: Lin_State = SYNC_BREAK_WAIT;
  1884  01DB  3001               	movlw	1
  1885  01DC  00DE               	movwf	??_LIN_Task_USART_Interrupt
  1886  01DD  085E               	movf	??_LIN_Task_USART_Interrupt,w
  1887  01DE  00AA               	movwf	_Lin_State	;volatile
  1888                           
  1889                           ;hal_lin.c: 209: }
  1890                           
  1891                           ;hal_lin.c: 208: break;
  1892                           
  1893                           ;hal_lin.c: 207: default:
  1894                           
  1895                           ;hal_lin.c: 205: }
  1896                           ;hal_lin.c: 206: break;
  1897  01DF  0008               	return
  1898  01E0                     i1l1522:	
  1899  01E0  0020               	movlb	0	; select bank0
  1900  01E1  082A               	movf	_Lin_State,w	;volatile
  1901                           
  1902                           ; Switch size 1, requested type "space"
  1903                           ; Number of cases is 7, Range of values is 1 to 7
  1904                           ; switch strategies available:
  1905                           ; Name         Instructions Cycles
  1906                           ; simple_byte           22    12 (average)
  1907                           ; direct_byte           23     9 (fixed)
  1908                           ; jumptable            263     9 (fixed)
  1909                           ;	Chosen strategy is simple_byte
  1910  01E2  3A01               	xorlw	1	; case 1
  1911  01E3  1903               	skipnz
  1912  01E4  2832               	goto	i1l1408
  1913  01E5  3A03               	xorlw	3	; case 2
  1914  01E6  1903               	skipnz
  1915  01E7  2847               	goto	i1l1422
  1916  01E8  3A01               	xorlw	1	; case 3
  1917  01E9  1903               	skipnz
  1918  01EA  2859               	goto	i1l1428
  1919  01EB  3A07               	xorlw	7	; case 4
  1920  01EC  1903               	skipnz
  1921  01ED  291F               	goto	i1l1480
  1922  01EE  3A01               	xorlw	1	; case 5
  1923  01EF  1903               	skipnz
  1924  01F0  28F7               	goto	i1l1470
  1925  01F1  3A03               	xorlw	3	; case 6
  1926  01F2  1903               	skipnz
  1927  01F3  29CE               	goto	i1l1514
  1928  01F4  3A01               	xorlw	1	; case 7
  1929  01F5  1903               	skipnz
  1930  01F6  2979               	goto	i1l1498
  1931  01F7  29F8               	goto	i1l185
  1932  01F8                     i1l185:	
  1933  01F8  0008               	return
  1934  01F9                     __end_of_LIN_Task_USART_Interrupt:	
  1935                           
  1936                           	psect	text8
  1937  02DC                     __ptext8:	
  1938 ;; *************** function ___bmul *****************
  1939 ;; Defined at:
  1940 ;;		line 2 in file "C:\Program Files (x86)\Microchip\xc8\v1.30\sources\common\bmul.c"
  1941 ;; Parameters:    Size  Location     Type
  1942 ;;  multiplier      1    wreg     unsigned char 
  1943 ;;  multiplicand    1    0[COMMON] unsigned char 
  1944 ;; Auto vars:     Size  Location     Type
  1945 ;;  multiplier      1    3[COMMON] unsigned char 
  1946 ;;  product         1    2[COMMON] unsigned char 
  1947 ;; Return value:  Size  Location     Type
  1948 ;;                  1    wreg      unsigned char 
  1949 ;; Registers used:
  1950 ;;		wreg, status,2, status,0
  1951 ;; Tracked objects:
  1952 ;;		On entry : 0/0
  1953 ;;		On exit  : 0/0
  1954 ;;		Unchanged: 0/0
  1955 ;; Data sizes:     COMMON   BANK0   BANK1
  1956 ;;      Params:         1       0       0
  1957 ;;      Locals:         2       0       0
  1958 ;;      Temps:          1       0       0
  1959 ;;      Totals:         4       0       0
  1960 ;;Total ram usage:        4 bytes
  1961 ;; Hardware stack levels used:    1
  1962 ;; This function calls:
  1963 ;;		Nothing
  1964 ;; This function is called by:
  1965 ;;		_LIN_Task_USART_Interrupt
  1966 ;;		_App_Notify_Frame_Received_USART
  1967 ;;		_LIN_Initialize
  1968 ;; This function uses a non-reentrant model
  1969 ;;
  1970                           
  1971                           
  1972                           ;psect for function ___bmul
  1973  02DC                     ___bmul:	
  1974                           
  1975                           ;incstack = 0
  1976                           ; Regs used in ___bmul: [wreg+status,2+status,0]
  1977                           ;___bmul@multiplier stored from wreg
  1978  02DC  00F3               	movwf	___bmul@multiplier
  1979  02DD  01F2               	clrf	___bmul@product
  1980  02DE                     i1l1364:	
  1981  02DE  1C73               	btfss	___bmul@multiplier,0
  1982  02DF  2AE4               	goto	i1l1368
  1983  02E0  0870               	movf	___bmul@multiplicand,w
  1984  02E1  00F1               	movwf	??___bmul
  1985  02E2  0871               	movf	??___bmul,w
  1986  02E3  07F2               	addwf	___bmul@product,f
  1987  02E4                     i1l1368:	
  1988  02E4  1003               	clrc
  1989  02E5  0DF0               	rlf	___bmul@multiplicand,f
  1990  02E6  1003               	clrc
  1991  02E7  0CF3               	rrf	___bmul@multiplier,f
  1992  02E8  08F3               	movf	___bmul@multiplier,f
  1993  02E9  1D03               	skipz
  1994  02EA  2ADE               	goto	i1l1364
  1995  02EB  0872               	movf	___bmul@product,w
  1996  02EC  0008               	return
  1997  02ED                     __end_of___bmul:	
  1998                           
  1999                           	psect	text9
  2000  030D                     __ptext9:	
  2001 ;; *************** function _LIN_Send_Data *****************
  2002 ;; Defined at:
  2003 ;;		line 218 in file "D:\Nandu\Git_Workspace\EmbeddedProjects\AutomotiveProjects\LIN\Front_Park_Switch\hal_lin.c"
  2004 ;; Parameters:    Size  Location     Type
  2005 ;;  data            1    wreg     unsigned char 
  2006 ;; Auto vars:     Size  Location     Type
  2007 ;;  data            1    0[COMMON] unsigned char 
  2008 ;; Return value:  Size  Location     Type
  2009 ;;		None               void
  2010 ;; Registers used:
  2011 ;;		wreg
  2012 ;; Tracked objects:
  2013 ;;		On entry : 0/0
  2014 ;;		On exit  : 0/0
  2015 ;;		Unchanged: 0/0
  2016 ;; Data sizes:     COMMON   BANK0   BANK1
  2017 ;;      Params:         0       0       0
  2018 ;;      Locals:         1       0       0
  2019 ;;      Temps:          0       0       0
  2020 ;;      Totals:         1       0       0
  2021 ;;Total ram usage:        1 bytes
  2022 ;; Hardware stack levels used:    1
  2023 ;; This function calls:
  2024 ;;		Nothing
  2025 ;; This function is called by:
  2026 ;;		_LIN_Task_USART_Interrupt
  2027 ;; This function uses a non-reentrant model
  2028 ;;
  2029                           
  2030                           
  2031                           ;psect for function _LIN_Send_Data
  2032  030D                     _LIN_Send_Data:	
  2033                           
  2034                           ;incstack = 0
  2035                           ; Regs used in _LIN_Send_Data: [wreg]
  2036                           ;LIN_Send_Data@data stored from wreg
  2037  030D  00F0               	movwf	LIN_Send_Data@data
  2038  030E                     i1l188:	
  2039                           ;hal_lin.c: 220: while(!TRMT);
  2040                           
  2041  030E  0023               	movlb	3	; select bank3
  2042  030F  1C9E               	btfss	30,1	;volatile
  2043  0310  2B0E               	goto	i1l188
  2044                           
  2045                           ;hal_lin.c: 221: TXREG = data;
  2046  0311  0870               	movf	LIN_Send_Data@data,w
  2047  0312  009A               	movwf	26	;volatile
  2048  0313  0008               	return
  2049  0314                     __end_of_LIN_Send_Data:	
  2050                           
  2051                           	psect	text10
  2052  0230                     __ptext10:	
  2053 ;; *************** function _LIN_Calc_Checksum *****************
  2054 ;; Defined at:
  2055 ;;		line 63 in file "D:\Nandu\Git_Workspace\EmbeddedProjects\AutomotiveProjects\LIN\Front_Park_Switch\hal_lin.c"
  2056 ;; Parameters:    Size  Location     Type
  2057 ;;  data            1    wreg     PTR unsigned char 
  2058 ;;		 -> Lin_Data(20), 
  2059 ;;  length          1    4[COMMON] unsigned char 
  2060 ;; Auto vars:     Size  Location     Type
  2061 ;;  data            1    9[COMMON] PTR unsigned char 
  2062 ;;		 -> Lin_Data(20), 
  2063 ;;  sum             2   10[COMMON] unsigned int 
  2064 ;; Return value:  Size  Location     Type
  2065 ;;                  1    wreg      unsigned char 
  2066 ;; Registers used:
  2067 ;;		wreg, fsr1l, fsr1h, status,2, status,0
  2068 ;; Tracked objects:
  2069 ;;		On entry : 0/0
  2070 ;;		On exit  : 0/0
  2071 ;;		Unchanged: 0/0
  2072 ;; Data sizes:     COMMON   BANK0   BANK1
  2073 ;;      Params:         1       0       0
  2074 ;;      Locals:         3       0       0
  2075 ;;      Temps:          4       0       0
  2076 ;;      Totals:         8       0       0
  2077 ;;Total ram usage:        8 bytes
  2078 ;; Hardware stack levels used:    1
  2079 ;; This function calls:
  2080 ;;		Nothing
  2081 ;; This function is called by:
  2082 ;;		_LIN_Task_USART_Interrupt
  2083 ;; This function uses a non-reentrant model
  2084 ;;
  2085                           
  2086                           
  2087                           ;psect for function _LIN_Calc_Checksum
  2088  0230                     _LIN_Calc_Checksum:	
  2089                           
  2090                           ;incstack = 0
  2091                           ; Regs used in _LIN_Calc_Checksum: [wreg+fsr1l+fsr1h+status,2+status,0]
  2092                           ;LIN_Calc_Checksum@data stored from wreg
  2093  0230  00F9               	movwf	LIN_Calc_Checksum@data
  2094                           
  2095                           ;hal_lin.c: 65: unsigned int sum = 0u;
  2096  0231  01FA               	clrf	LIN_Calc_Checksum@sum
  2097  0232  01FB               	clrf	LIN_Calc_Checksum@sum+1
  2098  0233                     i1l1384:	
  2099                           ;hal_lin.c: 68: while(length--)
  2100                           
  2101  0233  3001               	movlw	1
  2102  0234  02F4               	subwf	LIN_Calc_Checksum@length,f
  2103  0235  0874               	movf	LIN_Calc_Checksum@length,w
  2104  0236  3AFF               	xorlw	255
  2105  0237  1903               	btfsc	3,2
  2106  0238  2A48               	goto	i1l1386
  2107                           
  2108                           ;hal_lin.c: 69: {
  2109                           ;hal_lin.c: 70: sum += *data++;
  2110  0239  0879               	movf	LIN_Calc_Checksum@data,w
  2111  023A  0086               	movwf	6
  2112  023B  0187               	clrf	7
  2113  023C  0801               	movf	1,w
  2114  023D  00F5               	movwf	??_LIN_Calc_Checksum
  2115  023E  01F6               	clrf	??_LIN_Calc_Checksum+1
  2116  023F  0875               	movf	??_LIN_Calc_Checksum,w
  2117  0240  07FA               	addwf	LIN_Calc_Checksum@sum,f
  2118  0241  0876               	movf	??_LIN_Calc_Checksum+1,w
  2119  0242  3DFB               	addwfc	LIN_Calc_Checksum@sum+1,f
  2120  0243  3001               	movlw	1
  2121  0244  00F5               	movwf	??_LIN_Calc_Checksum
  2122  0245  0875               	movf	??_LIN_Calc_Checksum,w
  2123  0246  07F9               	addwf	LIN_Calc_Checksum@data,f
  2124  0247  2A33               	goto	i1l1384
  2125  0248                     i1l1386:	
  2126                           
  2127                           ;hal_lin.c: 71: }
  2128                           ;hal_lin.c: 74: sum = (sum & 0xFF) + (sum >> 8);
  2129  0248  087B               	movf	LIN_Calc_Checksum@sum+1,w
  2130  0249  00F6               	movwf	??_LIN_Calc_Checksum+1
  2131  024A  087A               	movf	LIN_Calc_Checksum@sum,w
  2132  024B  00F5               	movwf	??_LIN_Calc_Checksum
  2133  024C  0876               	movf	??_LIN_Calc_Checksum+1,w
  2134  024D  00F5               	movwf	??_LIN_Calc_Checksum
  2135  024E  01F6               	clrf	??_LIN_Calc_Checksum+1
  2136  024F  30FF               	movlw	255
  2137  0250  057A               	andwf	LIN_Calc_Checksum@sum,w
  2138  0251  00F7               	movwf	??_LIN_Calc_Checksum+2
  2139  0252  3000               	movlw	0
  2140  0253  057B               	andwf	LIN_Calc_Checksum@sum+1,w
  2141  0254  00F8               	movwf	??_LIN_Calc_Checksum+3
  2142  0255  0875               	movf	??_LIN_Calc_Checksum,w
  2143  0256  0777               	addwf	??_LIN_Calc_Checksum+2,w
  2144  0257  00FA               	movwf	LIN_Calc_Checksum@sum
  2145  0258  0876               	movf	??_LIN_Calc_Checksum+1,w
  2146  0259  3D78               	addwfc	??_LIN_Calc_Checksum+3,w
  2147  025A  00FB               	movwf	LIN_Calc_Checksum@sum+1
  2148                           
  2149                           ;hal_lin.c: 76: return (unsigned char)(~sum);
  2150  025B  097A               	comf	LIN_Calc_Checksum@sum,w
  2151  025C  0008               	return
  2152  025D                     __end_of_LIN_Calc_Checksum:	
  2153                           
  2154                           	psect	text11
  2155  01F9                     __ptext11:	
  2156 ;; *************** function _App_Notify_Frame_Received_USART *****************
  2157 ;; Defined at:
  2158 ;;		line 34 in file "D:\Nandu\Git_Workspace\EmbeddedProjects\AutomotiveProjects\LIN\Front_Park_Switch\app_lin.c"
  2159 ;; Parameters:    Size  Location     Type
  2160 ;;  id_index        1    wreg     unsigned char 
  2161 ;; Auto vars:     Size  Location     Type
  2162 ;;  id_index        1   11[COMMON] unsigned char 
  2163 ;; Return value:  Size  Location     Type
  2164 ;;		None               void
  2165 ;; Registers used:
  2166 ;;		wreg, fsr1l, fsr1h, status,2, status,0, pclath, cstack
  2167 ;; Tracked objects:
  2168 ;;		On entry : 0/0
  2169 ;;		On exit  : 0/0
  2170 ;;		Unchanged: 0/0
  2171 ;; Data sizes:     COMMON   BANK0   BANK1
  2172 ;;      Params:         0       0       0
  2173 ;;      Locals:         1       0       0
  2174 ;;      Temps:          0       5       0
  2175 ;;      Totals:         1       5       0
  2176 ;;Total ram usage:        6 bytes
  2177 ;; Hardware stack levels used:    1
  2178 ;; Hardware stack levels required when called:    1
  2179 ;; This function calls:
  2180 ;;		_memcpy
  2181 ;; This function is called by:
  2182 ;;		_LIN_Task_USART_Interrupt
  2183 ;; This function uses a non-reentrant model
  2184 ;;
  2185                           
  2186                           
  2187                           ;psect for function _App_Notify_Frame_Received_USART
  2188  01F9                     _App_Notify_Frame_Received_USART:	
  2189                           
  2190                           ;incstack = 0
  2191                           ; Regs used in _App_Notify_Frame_Received_USART: [wreg+fsr1l+fsr1h+status,2+status,0+pcl
      +                          ath+cstack]
  2192                           ;App_Notify_Frame_Received_USART@id_index stored from wreg
  2193  01F9  00FB               	movwf	App_Notify_Frame_Received_USART@id_index
  2194                           
  2195                           ;app_lin.c: 36: if(Lin_Msg[id_index].id == 0x01u)
  2196  01FA  087B               	movf	App_Notify_Frame_Received_USART@id_index,w
  2197  01FB  0020               	movlb	0	; select bank0
  2198  01FC  00D9               	movwf	??_App_Notify_Frame_Received_USART
  2199  01FD  3001               	movlw	1
  2200  01FE                     u49_25:	
  2201  01FE  35D9               	lslf	??_App_Notify_Frame_Received_USART,f
  2202  01FF  3EFF               	addlw	-1
  2203  0200  1D03               	skipz
  2204  0201  29FE               	goto	u49_25
  2205  0202  3559               	lslf	??_App_Notify_Frame_Received_USART,w
  2206  0203  3E05               	addlw	low (_Lin_Msg| (0+32768))
  2207  0204  3183               	movlp	high __stringtab
  2208  0205  000A               	callw
  2209  0206  3181               	pagesel	$	;select current page
  2210  0207  3A01               	xorlw	1
  2211  0208  1D03               	skipz
  2212  0209  0008               	return
  2213                           
  2214                           ;app_lin.c: 37: {
  2215                           ;app_lin.c: 38: memcpy(&led_data,Lin_Msg[id_index].buf_ptr,Lin_Msg[id_index].len);
  2216  020A  087B               	movf	App_Notify_Frame_Received_USART@id_index,w
  2217  020B  00D9               	movwf	??_App_Notify_Frame_Received_USART
  2218  020C  3001               	movlw	1
  2219  020D                     u51_25:	
  2220  020D  35D9               	lslf	??_App_Notify_Frame_Received_USART,f
  2221  020E  3EFF               	addlw	-1
  2222  020F  1D03               	skipz
  2223  0210  2A0D               	goto	u51_25
  2224  0211  3559               	lslf	??_App_Notify_Frame_Received_USART,w
  2225  0212  3E03               	addlw	3
  2226  0213  3E05               	addlw	low (_Lin_Msg| (0+32768))
  2227  0214  3183               	movlp	high __stringtab
  2228  0215  000A               	callw
  2229  0216  3181               	pagesel	$	;select current page
  2230  0217  00DA               	movwf	??_App_Notify_Frame_Received_USART+1
  2231  0218  085A               	movf	??_App_Notify_Frame_Received_USART+1,w
  2232  0219  00F4               	movwf	memcpy@s1
  2233  021A  087B               	movf	App_Notify_Frame_Received_USART@id_index,w
  2234  021B  00DB               	movwf	??_App_Notify_Frame_Received_USART+2
  2235  021C  3001               	movlw	1
  2236  021D                     u52_25:	
  2237  021D  35DB               	lslf	??_App_Notify_Frame_Received_USART+2,f
  2238  021E  3EFF               	addlw	-1
  2239  021F  1D03               	skipz
  2240  0220  2A1D               	goto	u52_25
  2241  0221  355B               	lslf	??_App_Notify_Frame_Received_USART+2,w
  2242  0222  3E01               	addlw	1
  2243  0223  3E05               	addlw	low (_Lin_Msg| (0+32768))
  2244  0224  3183               	movlp	high __stringtab
  2245  0225  000A               	callw
  2246  0226  3181               	pagesel	$	;select current page
  2247  0227  00DC               	movwf	??_App_Notify_Frame_Received_USART+3
  2248  0228  01DD               	clrf	??_App_Notify_Frame_Received_USART+4
  2249  0229  085C               	movf	??_App_Notify_Frame_Received_USART+3,w
  2250  022A  00F5               	movwf	memcpy@n
  2251  022B  085D               	movf	??_App_Notify_Frame_Received_USART+4,w
  2252  022C  00F6               	movwf	memcpy@n+1
  2253  022D  3051               	movlw	_led_data& (0+255)
  2254  022E  225D               	fcall	_memcpy
  2255  022F  0008               	return
  2256  0230                     __end_of_App_Notify_Frame_Received_USART:	
  2257                           
  2258                           	psect	text12
  2259  025D                     __ptext12:	
  2260 ;; *************** function _memcpy *****************
  2261 ;; Defined at:
  2262 ;;		line 11 in file "C:\Program Files (x86)\Microchip\xc8\v1.30\sources\common\memcpy.c"
  2263 ;; Parameters:    Size  Location     Type
  2264 ;;  d1              1    wreg     PTR void 
  2265 ;;		 -> led_data(8), Msg_02_Buffer(8), Msg_01_Buffer(8), 
  2266 ;;  s1              1    4[COMMON] PTR const void 
  2267 ;;		 -> Msg_02_Buffer(8), Msg_01_Buffer(8), Lin_Data.data(8), Lin_Data(20), 
  2268 ;;  n               2    5[COMMON] unsigned int 
  2269 ;; Auto vars:     Size  Location     Type
  2270 ;;  d1              1   10[COMMON] PTR void 
  2271 ;;		 -> led_data(8), Msg_02_Buffer(8), Msg_01_Buffer(8), 
  2272 ;;  s               1    9[COMMON] PTR const unsigned char 
  2273 ;;		 -> Msg_02_Buffer(8), Msg_01_Buffer(8), Lin_Data.data(8), Lin_Data(20), 
  2274 ;;  d               1    8[COMMON] PTR unsigned char 
  2275 ;;		 -> led_data(8), Msg_02_Buffer(8), Msg_01_Buffer(8), 
  2276 ;; Return value:  Size  Location     Type
  2277 ;;                  1    wreg      PTR void 
  2278 ;; Registers used:
  2279 ;;		wreg, fsr1l, fsr1h, status,2, status,0
  2280 ;; Tracked objects:
  2281 ;;		On entry : 0/0
  2282 ;;		On exit  : 0/0
  2283 ;;		Unchanged: 0/0
  2284 ;; Data sizes:     COMMON   BANK0   BANK1
  2285 ;;      Params:         3       0       0
  2286 ;;      Locals:         3       0       0
  2287 ;;      Temps:          1       0       0
  2288 ;;      Totals:         7       0       0
  2289 ;;Total ram usage:        7 bytes
  2290 ;; Hardware stack levels used:    1
  2291 ;; This function calls:
  2292 ;;		Nothing
  2293 ;; This function is called by:
  2294 ;;		_LIN_Task_USART_Interrupt
  2295 ;;		_App_Notify_Frame_Received_USART
  2296 ;; This function uses a non-reentrant model
  2297 ;;
  2298                           
  2299                           
  2300                           ;psect for function _memcpy
  2301  025D                     _memcpy:	
  2302                           
  2303                           ;incstack = 0
  2304                           ; Regs used in _memcpy: [wreg+fsr1l+fsr1h+status,2+status,0]
  2305                           ;memcpy@d1 stored from wreg
  2306  025D  00FA               	movwf	memcpy@d1
  2307  025E  0874               	movf	memcpy@s1,w
  2308  025F  00F7               	movwf	??_memcpy
  2309  0260  0877               	movf	??_memcpy,w
  2310  0261  00F9               	movwf	memcpy@s
  2311  0262  087A               	movf	memcpy@d1,w
  2312  0263  00F7               	movwf	??_memcpy
  2313  0264  0877               	movf	??_memcpy,w
  2314  0265  00F8               	movwf	memcpy@d
  2315  0266                     i1l1400:	
  2316  0266  3001               	movlw	1
  2317  0267  02F5               	subwf	memcpy@n,f
  2318  0268  3000               	movlw	0
  2319  0269  3BF6               	subwfb	memcpy@n+1,f
  2320  026A  30FF               	movlw	255
  2321  026B  0676               	xorwf	memcpy@n+1,w
  2322  026C  1D03               	skipz
  2323  026D  2A70               	goto	u48_25
  2324  026E  30FF               	movlw	255
  2325  026F  0675               	xorwf	memcpy@n,w
  2326  0270                     u48_25:	
  2327  0270  1903               	btfsc	3,2
  2328  0271  0008               	return
  2329  0272  0879               	movf	memcpy@s,w
  2330  0273  0086               	movwf	6
  2331  0274  0187               	clrf	7
  2332  0275  0801               	movf	1,w
  2333  0276  00F7               	movwf	??_memcpy
  2334  0277  0878               	movf	memcpy@d,w
  2335  0278  0086               	movwf	6
  2336  0279  0187               	clrf	7
  2337  027A  0877               	movf	??_memcpy,w
  2338  027B  0081               	movwf	1
  2339  027C  3001               	movlw	1
  2340  027D  00F7               	movwf	??_memcpy
  2341  027E  0877               	movf	??_memcpy,w
  2342  027F  07F9               	addwf	memcpy@s,f
  2343  0280  3001               	movlw	1
  2344  0281  00F7               	movwf	??_memcpy
  2345  0282  0877               	movf	??_memcpy,w
  2346  0283  07F8               	addwf	memcpy@d,f
  2347  0284  2A66               	goto	i1l1400
  2348  0285                     __end_of_memcpy:	
  2349                           ;	Return value of _memcpy is never used
  2350                           
  2351  007E                     btemp	set	126	;btemp
  2352  007E                     wtemp	set	126
  2353  007E                     wtemp0	set	126
  2354  0080                     wtemp1	set	128
  2355  0082                     wtemp2	set	130
  2356  0084                     wtemp3	set	132
  2357  0086                     wtemp4	set	134
  2358  0088                     wtemp5	set	136
  2359  007F                     wtemp6	set	127
  2360  007E                     ttemp	set	126
  2361  007E                     ttemp0	set	126
  2362  0081                     ttemp1	set	129
  2363  0084                     ttemp2	set	132
  2364  0087                     ttemp3	set	135
  2365  007F                     ttemp4	set	127
  2366  007E                     ltemp	set	126
  2367  007E                     ltemp0	set	126
  2368  0082                     ltemp1	set	130
  2369  0086                     ltemp2	set	134
  2370  0080                     ltemp3	set	128


Data Sizes:
    Strings     0
    Constant    8
    Data        0
    BSS         57
    Persistent  0
    Stack       0

Auto Spaces:
    Space          Size  Autos    Used
    COMMON           14     14      14
    BANK0            80     12      69
    BANK1            21      4       4

Pointer List with Targets:

    memcpy@d1	PTR void  size(1) Largest target is 8
		 -> led_data(BANK0[8]), Msg_02_Buffer(BANK0[8]), Msg_01_Buffer(BANK0[8]), 

    memcpy@d	PTR unsigned char  size(1) Largest target is 8
		 -> led_data(BANK0[8]), Msg_02_Buffer(BANK0[8]), Msg_01_Buffer(BANK0[8]), 

    memcpy@s1	PTR const void  size(1) Largest target is 20
		 -> Msg_02_Buffer(BANK0[8]), Msg_01_Buffer(BANK0[8]), Lin_Data.data(BANK0[8]), Lin_Data(BANK0[20]), 

    memcpy@s	PTR const unsigned char  size(1) Largest target is 20
		 -> Msg_02_Buffer(BANK0[8]), Msg_01_Buffer(BANK0[8]), Lin_Data.data(BANK0[8]), Lin_Data(BANK0[20]), 

    sp__memcpy	PTR void  size(1) Largest target is 8
		 -> led_data(BANK0[8]), Msg_02_Buffer(BANK0[8]), Msg_01_Buffer(BANK0[8]), 

    LIN_Calc_Checksum@data	PTR unsigned char  size(1) Largest target is 20
		 -> Lin_Data(BANK0[20]), 

    S212$buf_ptr	PTR unsigned char  size(1) Largest target is 8
		 -> Msg_02_Buffer(BANK0[8]), Msg_01_Buffer(BANK0[8]), 

    Lin_Msg.buf_ptr	PTR unsigned char  size(1) Largest target is 8
		 -> Msg_02_Buffer(BANK0[8]), Msg_01_Buffer(BANK0[8]), 


Critical Paths under _main in COMMON

    None.

Critical Paths under _isr in COMMON

    _isr->_LIN_Task_USART_Interrupt
    _LIN_Task_USART_Interrupt->_App_Notify_Frame_Received_USART
    _LIN_Task_USART_Interrupt->_LIN_Calc_Checksum
    _LIN_Calc_Checksum->___bmul
    _App_Notify_Frame_Received_USART->_memcpy
    _memcpy->___bmul

Critical Paths under _main in BANK0

    None.

Critical Paths under _isr in BANK0

    _isr->_LIN_Task_USART_Interrupt
    _LIN_Task_USART_Interrupt->_App_Notify_Frame_Received_USART

Critical Paths under _main in BANK1

    _App_Btn_Process->_Read_Adc

Critical Paths under _isr in BANK1

    None.

Call Graph Tables:

 ---------------------------------------------------------------------------------
 (Depth) Function   	        Calls       Base Space   Used Autos Params    Refs
 ---------------------------------------------------------------------------------
 (0) _main                                                 2     2      0      34
                                              2 BANK1      2     2      0
                    _App_Btn_Process
                           _Init_Btn
                          _Init_UART
                   _InitializeSystem
 ---------------------------------------------------------------------------------
 (1) _InitializeSystem                                     0     0      0       0
 ---------------------------------------------------------------------------------
 (1) _Init_UART                                            0     0      0       0
 ---------------------------------------------------------------------------------
 (1) _Init_Btn                                             0     0      0       0
 ---------------------------------------------------------------------------------
 (1) _App_Btn_Process                                      0     0      0       0
                           _Read_Adc
 ---------------------------------------------------------------------------------
 (2) _Read_Adc                                             2     0      2       0
                                              0 BANK1      2     0      2
 ---------------------------------------------------------------------------------
 Estimated maximum stack depth 2
 ---------------------------------------------------------------------------------
 (Depth) Function   	        Calls       Base Space   Used Autos Params    Refs
 ---------------------------------------------------------------------------------
 (3) _isr                                                  3     3      0    1865
                                             13 COMMON     1     1      0
                                             10 BANK0      2     2      0
           _LIN_Task_USART_Interrupt
 ---------------------------------------------------------------------------------
 (4) _LIN_Task_USART_Interrupt                             6     6      0    1842
                                             12 COMMON     1     1      0
                                              5 BANK0      5     5      0
    _App_Notify_Frame_Received_USART
                  _LIN_Calc_Checksum
                      _LIN_Send_Data
                             ___bmul
                             _memcpy
 ---------------------------------------------------------------------------------
 (5) ___bmul                                               4     3      1     576
                                              0 COMMON     4     3      1
 ---------------------------------------------------------------------------------
 (5) _LIN_Send_Data                                        1     1      0      22
                                              0 COMMON     1     1      0
 ---------------------------------------------------------------------------------
 (5) _LIN_Calc_Checksum                                    8     7      1     274
                                              4 COMMON     8     7      1
                             ___bmul (ARG)
 ---------------------------------------------------------------------------------
 (5) _App_Notify_Frame_Received_USART                      6     6      0     452
                                             11 COMMON     1     1      0
                                              0 BANK0      5     5      0
                             _memcpy
 ---------------------------------------------------------------------------------
 (5) _memcpy                                               7     4      3     386
                                              4 COMMON     7     4      3
                             ___bmul (ARG)
 ---------------------------------------------------------------------------------
 Estimated maximum stack depth 5
 ---------------------------------------------------------------------------------

 Call Graph Graphs:

 _main (ROOT)
   _App_Btn_Process
     _Read_Adc
   _Init_Btn
   _Init_UART
   _InitializeSystem

 _isr (ROOT)
   _LIN_Task_USART_Interrupt
     _App_Notify_Frame_Received_USART
       _memcpy
         ___bmul (ARG)
     _LIN_Calc_Checksum
       ___bmul (ARG)
     _LIN_Send_Data
     ___bmul
     _memcpy
       ___bmul (ARG)

 Address spaces:
Name               Size   Autos  Total    Cost      Usage
BIGRAM              70      0       0       0        0.0%
EEDATA             100      0       0       0        0.0%
NULL                 0      0       0       0        0.0%
CODE                 0      0       0       0        0.0%
BITCOMMON            E      0       0       1        0.0%
BITSFR0              0      0       0       1        0.0%
SFR0                 0      0       0       1        0.0%
COMMON               E      E       E       2      100.0%
BITSFR1              0      0       0       2        0.0%
SFR1                 0      0       0       2        0.0%
BITSFR2              0      0       0       3        0.0%
SFR2                 0      0       0       3        0.0%
STACK                0      0       0       3        0.0%
BITSFR3              0      0       0       4        0.0%
SFR3                 0      0       0       4        0.0%
ABS                  0      0      57       4        0.0%
BITBANK0            50      0       0       5        0.0%
BITSFR4              0      0       0       5        0.0%
SFR4                 0      0       0       5        0.0%
BANK0               50      C      45       6       86.3%
BITSFR5              0      0       0       6        0.0%
SFR5                 0      0       0       6        0.0%
BITBANK1            15      0       0       7        0.0%
BITSFR6              0      0       0       7        0.0%
SFR6                 0      0       0       7        0.0%
BANK1               15      4       4       8       19.0%
BITSFR7              0      0       0       8        0.0%
SFR7                 0      0       0       8        0.0%
BITSFR8              0      0       0       9        0.0%
SFR8                 0      0       0       9        0.0%
DATA                 0      0      57       9        0.0%
BITSFR9              0      0       0      10        0.0%
SFR9                 0      0       0      10        0.0%
BITSFR10             0      0       0      11        0.0%
SFR10                0      0       0      11        0.0%
BITSFR11             0      0       0      12        0.0%
SFR11                0      0       0      12        0.0%
BITSFR12             0      0       0      13        0.0%
SFR12                0      0       0      13        0.0%
BITSFR13             0      0       0      14        0.0%
SFR13                0      0       0      14        0.0%
BITSFR14             0      0       0      15        0.0%
SFR14                0      0       0      15        0.0%
BITSFR15             0      0       0      16        0.0%
SFR15                0      0       0      16        0.0%
BITSFR16             0      0       0      17        0.0%
SFR16                0      0       0      17        0.0%
BITSFR17             0      0       0      18        0.0%
SFR17                0      0       0      18        0.0%
BITSFR18             0      0       0      19        0.0%
SFR18                0      0       0      19        0.0%
BITSFR19             0      0       0      20        0.0%
SFR19                0      0       0      20        0.0%
BITSFR20             0      0       0      21        0.0%
SFR20                0      0       0      21        0.0%
BITSFR21             0      0       0      22        0.0%
SFR21                0      0       0      22        0.0%
BITSFR22             0      0       0      23        0.0%
SFR22                0      0       0      23        0.0%
BITSFR23             0      0       0      24        0.0%
SFR23                0      0       0      24        0.0%
BITSFR24             0      0       0      25        0.0%
SFR24                0      0       0      25        0.0%
BITSFR25             0      0       0      26        0.0%
SFR25                0      0       0      26        0.0%
BITSFR26             0      0       0      27        0.0%
SFR26                0      0       0      27        0.0%
BITSFR27             0      0       0      28        0.0%
SFR27                0      0       0      28        0.0%
BITSFR28             0      0       0      29        0.0%
SFR28                0      0       0      29        0.0%
BITSFR29             0      0       0      30        0.0%
SFR29                0      0       0      30        0.0%
BITSFR30             0      0       0      31        0.0%
SFR30                0      0       0      31        0.0%
BITSFR31             0      0       0      32        0.0%
SFR31                0      0       0      32        0.0%


Microchip Technology PIC Macro Assembler V1.30 build 55553 
Symbol Table                                                                                   Tue Nov 25 14:49:02 2025

                          ___bmul@product 0072                                        l74 02BC  
               __end_of_LIN_Calc_Checksum 025D                             _Msg_01_Buffer 0041  
                                     l104 02FB                             _Msg_02_Buffer 0049  
                                     _GIE 005F                                       u735 02B7  
                                     _isr 0004                                       wreg 0009  
                                    l1542 02AD                                      l1552 02C4  
                                    ?_isr 0070                                      _PEIE 005E  
                                    _RCIF 008D                                      i1l87 0023  
                                    _TMR2 001A                                      _TRMT 0CF1  
                _LIN_Task_USART_Interrupt 0030                                      _main 02A8  
                                    fsr0h 0005                                      fsr1h 0007  
                                    fsr0l 0004                                      indf0 0000  
                                    indf1 0001                                      fsr1l 0006  
                                    btemp 007E                                      ltemp 007E  
                                    start 0027                                      ttemp 007E  
                                    wtemp 007E                         ___bmul@multiplier 0073  
                         __end_of_Lin_Msg 030D                                     ??_isr 0063  
                                   ?_main 0070                LIN_Task_USART_Interrupt@id 0025  
                                   _T2CON 001C                                     i1l185 01F8  
                                   i1l188 030E                                     _RCREG 0199  
                                   u51_25 020D                                     u52_25 021D  
                                   u60_25 0091                                     u62_25 00B8  
                                   u48_25 0270                                     u56_25 0065  
                                   u49_25 01FE                                     u66_25 0132  
                                   u58_25 0079                                     u68_25 01B9  
                                   _TXREG 019A                   LIN_Calc_Checksum@length 0074  
                                   ltemp0 007E                                     ltemp1 0082  
                                   ltemp2 0086                                     ltemp3 0080  
                 __end_of_App_Btn_Process 02F9                                     ttemp0 007E  
                                   ttemp1 0081                                     ttemp2 0084  
                                   ttemp3 0087                                     ttemp4 007F  
                                   wtemp0 007E                                     wtemp1 0080  
                                   wtemp2 0082                                     wtemp3 0084  
                                   wtemp4 0086                                     wtemp5 0088  
                                   wtemp6 007F                           __initialization 0028  
                            __end_of_main 02CA                          __end_of_Init_Btn 031B  
                        __end_of_Read_Adc 0304                __size_of_LIN_Calc_Checksum 002D  
                                  ??_main 00A2                 __size_of_InitializeSystem 0023  
                                  _ADCON0 009D                                    _ADCON1 009E  
                                  _ADRESH 009C                                    _ADRESL 009B  
                                  _APFCON 011D                                    _ANSELA 018C  
                                  i1l1400 0266                                    i1l1420 0042  
                                  i1l1422 0047                                    i1l1512 01C8  
                                  i1l1408 0032                                    i1l1514 01CE  
                                  i1l1426 0054                                    i1l1522 01E0  
                                  i1l1364 02DE                                    i1l1452 00AD  
                                  i1l1428 0059                                    i1l1532 0017  
                                  i1l1518 01DB                                    i1l1470 00F7  
                                  i1l1384 0233                                    i1l1368 02E4  
                                  i1l1480 011F                                    i1l1464 00EC  
                                  i1l1386 0248                                    i1l1466 00F1  
                                  i1l1492 015B                                    i1l1478 011A  
                                  i1l1498 0179                                    _OSCCON 0099  
                      __size_of_Init_UART 0012                                    _TMR2IE 0489  
                                  _TMR2IF 0089                                    _SPBRGH 019C  
                                  _SPBRGL 019B                                    _TRISA0 0460  
                                  _TRISA1 0461                                    _TRISA2 0462  
                                  _TRISA3 0463                                    _TRISA4 0464  
                                  _TRISA5 0465                                    ___bmul 02DC  
                                  _adcVal 0020                                    _memcpy 025D  
                        ?_App_Btn_Process 0070                   __end_of__initialization 002E  
                     ___bmul@multiplicand 0070                            __pcstackCOMMON 0070  
                       __end_of_Init_UART 02DC                    __size_of_LIN_Send_Data 0007  
              ??_LIN_Task_USART_Interrupt 005E                                __pbssBANK0 0020  
                               ?_Init_Btn 0070                                 ?_Read_Adc 00A0  
                              __pmaintext 02A8                          _timer_10ms_count 002C  
                                 ?___bmul 0070                                __pintentry 0004  
                                 _CM1CON0 0111                                   ?_memcpy 0074  
                        _InitializeSystem 0285                                __stringtab 0304  
                              ??_Init_Btn 00A0                                ??_Read_Adc 00A2  
                           _LIN_Send_Data 030D                                   _Lin_Msg 0305  
                         __size_of___bmul 0011                           __size_of_memcpy 0028  
                       _timer_100ms_count 002B                                   __ptext1 0285  
                                 __ptext2 02CA                                   __ptext3 031A  
                                 __ptext4 02ED                                   __ptext5 02F9  
                                 __ptext7 0030                                   __ptext8 02DC  
                                 __ptext9 030D                              __size_of_isr 0023  
                                 clrloop0 0315                      end_of_initialization 002E  
                                 isr@data 007D                                   memcpy@d 0078  
                                 memcpy@n 0075                                   memcpy@s 0079  
                          ?_LIN_Send_Data 0070                                 _RCSTAbits 019D  
           LIN_Task_USART_Interrupt@dummy 0024           LIN_Task_USART_Interrupt@id_type 0028  
                               _TXSTAbits 019E                            __end_of___bmul 02ED  
        LIN_Task_USART_Interrupt@data_cnt 0023                               _BAUDCONbits 019F  
        LIN_Task_USART_Interrupt@id_index 0026                            __end_of_memcpy 0285  
                     start_initialization 0028                                 _Init_UART 02CA  
                               _Lin_State 002A                               __end_of_isr 0027  
                         ??_LIN_Send_Data 0070                  __end_of_InitializeSystem 02A8  
                       __size_of_Init_Btn 0001                         __size_of_Read_Adc 000B  
                                ??___bmul 0071                  __size_of_App_Btn_Process 000C  
                                ??_memcpy 0077                                 ___latbits 0000  
                              ?_Init_UART 0070                             __pcstackBANK0 0059  
                           __pcstackBANK1 00A0         __size_of_LIN_Task_USART_Interrupt 01C9  
               ?_LIN_Task_USART_Interrupt 0070                                 __pstrings 0304  
                               clear_ram0 0314                                  _PIR1bits 0011  
                       LIN_Send_Data@data 0070                         ??_App_Btn_Process 00A2  
                             ??_Init_UART 00A0                     LIN_Calc_Checksum@data 0079  
                                _Lin_Data 002D                                  _Init_Btn 031A  
                                _Read_Adc 02F9        LIN_Task_USART_Interrupt@id_receive 0027  
                      __end_of__stringtab 0305                                  __ptext10 0230  
                                __ptext11 01F9                                  __ptext12 025D  
 App_Notify_Frame_Received_USART@id_index 007B                                  _led_data 0051  
                           __size_of_main 0022                         ?_InitializeSystem 0070  
                      ??_InitializeSystem 00A0   __end_of_App_Notify_Frame_Received_USART 0230  
__size_of_App_Notify_Frame_Received_USART 0037         ??_App_Notify_Frame_Received_USART 0059  
        ?_App_Notify_Frame_Received_USART 0070           _App_Notify_Frame_Received_USART 01F9  
                                main@data 00A2                      LIN_Calc_Checksum@sum 007A  
                                memcpy@d1 007A                                  memcpy@s1 0074  
        __end_of_LIN_Task_USART_Interrupt 01F9                                  intlevel1 0000  
                   __end_of_LIN_Send_Data 0314        LIN_Task_USART_Interrupt@temp_cksum 0029  
            LIN_Task_USART_Interrupt@data 007C              LIN_Task_USART_Interrupt@byte 0022  
                              _OPTION_REG 0095                         _LIN_Calc_Checksum 0230  
                      ?_LIN_Calc_Checksum 0074                       ??_LIN_Calc_Checksum 0075  
                         _App_Btn_Process 02ED  
